
ucosii.om:     file format elf32-tradbigmips

Disassembly of section .vectors:

00000000 <_reset>:
   0:	3c1c0000 	lui	gp,0x0
   4:	3c1d0002 	lui	sp,0x2
   8:	27bd98b4 	addiu	sp,sp,-26444
   c:	3c1a0000 	lui	k0,0x0
  10:	275a03cc 	addiu	k0,k0,972
  14:	03400008 	jr	k0
  18:	00000000 	nop
  1c:	00000000 	nop
  20:	3c1a0000 	lui	k0,0x0
  24:	275a729c 	addiu	k0,k0,29340
  28:	03400008 	jr	k0
  2c:	00000000 	nop
	...
  40:	3c1a0000 	lui	k0,0x0
  44:	275a744c 	addiu	k0,k0,29772
  48:	03400008 	jr	k0
  4c:	00000000 	nop
  50:	00000000 	nop
Disassembly of section .text:

00000080 <uart_putc>:
      80:	3c021000 	lui	v0,0x1000
      84:	308400ff 	andi	a0,a0,0xff
      88:	34430005 	ori	v1,v0,0x5
      8c:	90620000 	lbu	v0,0(v1)
      90:	30420020 	andi	v0,v0,0x20
      94:	1040fffd 	beqz	v0,8c <STK_CTX_SIZE>
      98:	3c051000 	lui	a1,0x1000
      9c:	2402000a 	li	v0,10
      a0:	a0a40000 	sb	a0,0(a1)
      a4:	10820009 	beq	a0,v0,cc <STK_CTX_SIZE+0x40>
      a8:	3c021000 	lui	v0,0x1000
      ac:	34440005 	ori	a0,v0,0x5
      b0:	24030060 	li	v1,96
      b4:	90820000 	lbu	v0,0(a0)
      b8:	30420060 	andi	v0,v0,0x60
      bc:	1443fffd 	bne	v0,v1,b4 <STK_CTX_SIZE+0x28>
      c0:	00000000 	nop
      c4:	03e00008 	jr	ra
      c8:	00000000 	nop
      cc:	34a30005 	ori	v1,a1,0x5
      d0:	90620000 	lbu	v0,0(v1)
      d4:	30420020 	andi	v0,v0,0x20
      d8:	1040fffd 	beqz	v0,d0 <STK_CTX_SIZE+0x44>
      dc:	3c021000 	lui	v0,0x1000
      e0:	2403000d 	li	v1,13
      e4:	a0430000 	sb	v1,0(v0)
      e8:	0800002b 	j	ac <STK_CTX_SIZE+0x20>
      ec:	3c021000 	lui	v0,0x1000

000000f0 <gpio_out>:
      f0:	3c022000 	lui	v0,0x2000
      f4:	34420004 	ori	v0,v0,0x4
      f8:	ac440000 	sw	a0,0(v0)
      fc:	03e00008 	jr	ra
     100:	00000000 	nop

00000104 <gpio_in>:
     104:	3c032000 	lui	v1,0x2000
     108:	8c620000 	lw	v0,0(v1)
     10c:	03e00008 	jr	ra
     110:	00000000 	nop

00000114 <uart_print_str>:
     114:	27bdffe0 	addiu	sp,sp,-32
     118:	afb00018 	sw	s0,24(sp)
     11c:	afbf001c 	sw	ra,28(sp)
     120:	0c001c9e 	jal	7278 <OS_CPU_SR_Save>
     124:	00808021 	move	s0,a0
     128:	92050000 	lbu	a1,0(s0)
     12c:	afa20010 	sw	v0,16(sp)
     130:	10a00015 	beqz	a1,188 <uart_print_str+0x74>
     134:	3c081000 	lui	t0,0x1000
     138:	02002021 	move	a0,s0
     13c:	35030005 	ori	v1,t0,0x5
     140:	2407000a 	li	a3,10
     144:	3c0a1000 	lui	t2,0x1000
     148:	2409000d 	li	t1,13
     14c:	24060060 	li	a2,96
     150:	90620000 	lbu	v0,0(v1)
     154:	30420020 	andi	v0,v0,0x20
     158:	1040fffd 	beqz	v0,150 <uart_print_str+0x3c>
     15c:	00000000 	nop
     160:	a1050000 	sb	a1,0(t0)
     164:	10a7000d 	beq	a1,a3,19c <uart_print_str+0x88>
     168:	00000000 	nop
     16c:	90620000 	lbu	v0,0(v1)
     170:	30420060 	andi	v0,v0,0x60
     174:	1446fffd 	bne	v0,a2,16c <uart_print_str+0x58>
     178:	00000000 	nop
     17c:	90850001 	lbu	a1,1(a0)
     180:	14a0fff3 	bnez	a1,150 <uart_print_str+0x3c>
     184:	24840001 	addiu	a0,a0,1
     188:	8fa40010 	lw	a0,16(sp)
     18c:	8fbf001c 	lw	ra,28(sp)
     190:	8fb00018 	lw	s0,24(sp)
     194:	08001ca5 	j	7294 <OS_CPU_SR_Restore>
     198:	27bd0020 	addiu	sp,sp,32
     19c:	90620000 	lbu	v0,0(v1)
     1a0:	30420020 	andi	v0,v0,0x20
     1a4:	1040fffd 	beqz	v0,19c <uart_print_str+0x88>
     1a8:	00000000 	nop
     1ac:	a1490000 	sb	t1,0(t2)
     1b0:	0800005b 	j	16c <uart_print_str+0x58>
     1b4:	00000000 	nop

000001b8 <Task2>:
     1b8:	27bdffe8 	addiu	sp,sp,-24
     1bc:	3c020000 	lui	v0,0x0
     1c0:	afb00010 	sw	s0,16(sp)
     1c4:	afbf0014 	sw	ra,20(sp)
     1c8:	24507748 	addiu	s0,v0,30536
     1cc:	0c000045 	jal	114 <uart_print_str>
     1d0:	02002021 	move	a0,s0
     1d4:	0c001384 	jal	4e10 <OSTimeDly>
     1d8:	24040001 	li	a0,1
     1dc:	08000073 	j	1cc <Task2+0x14>
     1e0:	00000000 	nop

000001e4 <Task1>:
     1e4:	27bdffe8 	addiu	sp,sp,-24
     1e8:	3c020000 	lui	v0,0x0
     1ec:	afb00010 	sw	s0,16(sp)
     1f0:	afbf0014 	sw	ra,20(sp)
     1f4:	24507750 	addiu	s0,v0,30544
     1f8:	0c000045 	jal	114 <uart_print_str>
     1fc:	02002021 	move	a0,s0
     200:	0c001384 	jal	4e10 <OSTimeDly>
     204:	24040001 	li	a0,1
     208:	0800007e 	j	1f8 <Task1+0x14>
     20c:	00000000 	nop

00000210 <OSInitTick>:
     210:	00001821 	move	v1,zero
     214:	40834800 	mtc0	v1,c0_count
     218:	3c020004 	lui	v0,0x4
     21c:	344245c0 	ori	v0,v0,0x45c0
     220:	40825800 	mtc0	v0,c0_compare
     224:	3c031000 	lui	v1,0x1000
     228:	34630401 	ori	v1,v1,0x401
     22c:	40836000 	mtc0	v1,c0_status
     230:	3c040000 	lui	a0,0x0
     234:	08000045 	j	114 <uart_print_str>
     238:	24847758 	addiu	a0,a0,30552

0000023c <TaskStart>:
     23c:	27bdffc8 	addiu	sp,sp,-56
     240:	afb70030 	sw	s7,48(sp)
     244:	afb6002c 	sw	s6,44(sp)
     248:	afb50028 	sw	s5,40(sp)
     24c:	afb40024 	sw	s4,36(sp)
     250:	afb30020 	sw	s3,32(sp)
     254:	afb2001c 	sw	s2,28(sp)
     258:	afb10018 	sw	s1,24(sp)
     25c:	afb00014 	sw	s0,20(sp)
     260:	afbf0034 	sw	ra,52(sp)
     264:	0c000084 	jal	210 <OSInitTick>
     268:	00008821 	move	s1,zero
     26c:	3c020000 	lui	v0,0x0
     270:	24527871 	addiu	s2,v0,30833
     274:	3c031000 	lui	v1,0x1000
     278:	3c022000 	lui	v0,0x2000
     27c:	34700005 	ori	s0,v1,0x5
     280:	34560004 	ori	s6,v0,0x4
     284:	3c141000 	lui	s4,0x1000
     288:	2415000a 	li	s5,10
     28c:	2417000d 	li	s7,13
     290:	24130060 	li	s3,96
     294:	2e220067 	sltiu	v0,s1,103
     298:	10400019 	beqz	v0,300 <TaskStart+0xc4>
     29c:	00000000 	nop
     2a0:	9243ffff 	lbu	v1,-1(s2)
     2a4:	92020000 	lbu	v0,0(s0)
     2a8:	30420020 	andi	v0,v0,0x20
     2ac:	1040fffd 	beqz	v0,2a4 <TaskStart+0x68>
     2b0:	00000000 	nop
     2b4:	a2830000 	sb	v1,0(s4)
     2b8:	10750018 	beq	v1,s5,31c <TaskStart+0xe0>
     2bc:	00000000 	nop
     2c0:	92020000 	lbu	v0,0(s0)
     2c4:	30420060 	andi	v0,v0,0x60
     2c8:	1453fffd 	bne	v0,s3,2c0 <TaskStart+0x84>
     2cc:	00000000 	nop
     2d0:	92430000 	lbu	v1,0(s2)
     2d4:	92020000 	lbu	v0,0(s0)
     2d8:	30420020 	andi	v0,v0,0x20
     2dc:	1040fffd 	beqz	v0,2d4 <TaskStart+0x98>
     2e0:	00000000 	nop
     2e4:	a2830000 	sb	v1,0(s4)
     2e8:	10750013 	beq	v1,s5,338 <TaskStart+0xfc>
     2ec:	00000000 	nop
     2f0:	92020000 	lbu	v0,0(s0)
     2f4:	30420060 	andi	v0,v0,0x60
     2f8:	1453fffd 	bne	v0,s3,2f0 <TaskStart+0xb4>
     2fc:	00000000 	nop
     300:	aed10000 	sw	s1,0(s6)
     304:	24040001 	li	a0,1
     308:	26520002 	addiu	s2,s2,2
     30c:	0c001384 	jal	4e10 <OSTimeDly>
     310:	26310002 	addiu	s1,s1,2
     314:	080000a6 	j	298 <TaskStart+0x5c>
     318:	2e220067 	sltiu	v0,s1,103
     31c:	92020000 	lbu	v0,0(s0)
     320:	30420020 	andi	v0,v0,0x20
     324:	1040fffd 	beqz	v0,31c <TaskStart+0xe0>
     328:	00000000 	nop
     32c:	a2970000 	sb	s7,0(s4)
     330:	080000b0 	j	2c0 <TaskStart+0x84>
     334:	00000000 	nop
     338:	92020000 	lbu	v0,0(s0)
     33c:	30420020 	andi	v0,v0,0x20
     340:	1040fffd 	beqz	v0,338 <TaskStart+0xfc>
     344:	00000000 	nop
     348:	a2970000 	sb	s7,0(s4)
     34c:	080000bc 	j	2f0 <TaskStart+0xb4>
     350:	00000000 	nop

00000354 <gpio_init>:
     354:	3c032000 	lui	v1,0x2000
     358:	34650008 	ori	a1,v1,0x8
     35c:	2402ffff 	li	v0,-1
     360:	aca20000 	sw	v0,0(a1)
     364:	3c020f0f 	lui	v0,0xf0f
     368:	34660004 	ori	a2,v1,0x4
     36c:	3c040000 	lui	a0,0x0
     370:	3463000c 	ori	v1,v1,0xc
     374:	34420f0f 	ori	v0,v0,0xf0f
     378:	ac600000 	sw	zero,0(v1)
     37c:	2484776c 	addiu	a0,a0,30572
     380:	acc20000 	sw	v0,0(a2)
     384:	08000045 	j	114 <uart_print_str>
     388:	00000000 	nop

0000038c <uart_init>:
     38c:	3c051000 	lui	a1,0x1000
     390:	34a60003 	ori	a2,a1,0x3
     394:	2402ff80 	li	v0,-128
     398:	a0c20000 	sb	v0,0(a2)
     39c:	34a70001 	ori	a3,a1,0x1
     3a0:	3c040000 	lui	a0,0x0
     3a4:	2403ffb6 	li	v1,-74
     3a8:	24020003 	li	v0,3
     3ac:	a0a30000 	sb	v1,0(a1)
     3b0:	24847788 	addiu	a0,a0,30600
     3b4:	a0e00000 	sb	zero,0(a3)
     3b8:	a0c00000 	sb	zero,0(a2)
     3bc:	a0e00000 	sb	zero,0(a3)
     3c0:	a0c20000 	sb	v0,0(a2)
     3c4:	08000045 	j	114 <uart_print_str>
     3c8:	00000000 	nop

000003cc <main>:
     3cc:	27bdffe8 	addiu	sp,sp,-24
     3d0:	afbf0014 	sw	ra,20(sp)
     3d4:	0c001b1c 	jal	6c70 <OSInit>
     3d8:	00000000 	nop
     3dc:	0c0000e3 	jal	38c <uart_init>
     3e0:	00000000 	nop
     3e4:	0c0000d5 	jal	354 <gpio_init>
     3e8:	00000000 	nop
     3ec:	3c040000 	lui	a0,0x0
     3f0:	3c060001 	lui	a2,0x1
     3f4:	2484023c 	addiu	a0,a0,572
     3f8:	24c68548 	addiu	a2,a2,-31416
     3fc:	00002821 	move	a1,zero
     400:	0c0012c7 	jal	4b1c <OSTaskCreate>
     404:	00003821 	move	a3,zero
     408:	3c040000 	lui	a0,0x0
     40c:	3c060000 	lui	a2,0x0
     410:	248401e4 	addiu	a0,a0,484
     414:	24c67d48 	addiu	a2,a2,32072
     418:	00002821 	move	a1,zero
     41c:	0c0012c7 	jal	4b1c <OSTaskCreate>
     420:	24070001 	li	a3,1
     424:	3c040000 	lui	a0,0x0
     428:	3c060001 	lui	a2,0x1
     42c:	248401b8 	addiu	a0,a0,440
     430:	24c68148 	addiu	a2,a2,-32440
     434:	00002821 	move	a1,zero
     438:	0c0012c7 	jal	4b1c <OSTaskCreate>
     43c:	24070002 	li	a3,2
     440:	8fbf0014 	lw	ra,20(sp)
     444:	08001ac8 	j	6b20 <OSStart>
     448:	27bd0018 	addiu	sp,sp,24

0000044c <OS_FlagBlock>:
     44c:	8f887854 	lw	t0,30804(gp)
     450:	91020034 	lbu	v0,52(t0)
     454:	ad050028 	sw	a1,40(t0)
     458:	34420020 	ori	v0,v0,0x20
     45c:	a1020034 	sb	v0,52(t0)
     460:	8fa30010 	lw	v1,16(sp)
     464:	a1000035 	sb	zero,53(t0)
     468:	ad030030 	sw	v1,48(t0)
     46c:	aca80008 	sw	t0,8(a1)
     470:	a0a70012 	sb	a3,18(a1)
     474:	8c820004 	lw	v0,4(a0)
     478:	aca00004 	sw	zero,4(a1)
     47c:	aca20000 	sw	v0,0(a1)
     480:	aca4000c 	sw	a0,12(a1)
     484:	8c820004 	lw	v0,4(a0)
     488:	10400002 	beqz	v0,494 <OS_FlagBlock+0x48>
     48c:	a4a60010 	sh	a2,16(a1)
     490:	ac450004 	sw	a1,4(v0)
     494:	ac850004 	sw	a1,4(a0)
     498:	91040038 	lbu	a0,56(t0)
     49c:	27837844 	addiu	v1,gp,30788
     4a0:	00641821 	addu	v1,v1,a0
     4a4:	91020039 	lbu	v0,57(t0)
     4a8:	90640000 	lbu	a0,0(v1)
     4ac:	00021027 	nor	v0,zero,v0
     4b0:	00441024 	and	v0,v0,a0
     4b4:	14400006 	bnez	v0,4d0 <OS_FlagBlock+0x84>
     4b8:	a0620000 	sb	v0,0(v1)
     4bc:	9102003a 	lbu	v0,58(t0)
     4c0:	93837840 	lbu	v1,30784(gp)
     4c4:	00021027 	nor	v0,zero,v0
     4c8:	00431024 	and	v0,v0,v1
     4cc:	a3827840 	sb	v0,30784(gp)
     4d0:	03e00008 	jr	ra
     4d4:	00000000 	nop

000004d8 <OS_FlagTaskRdy>:
     4d8:	8c860008 	lw	a2,8(a0)
     4dc:	00803821 	move	a3,a0
     4e0:	90c20034 	lbu	v0,52(a2)
     4e4:	a4c5002c 	sh	a1,44(a2)
     4e8:	304200df 	andi	v0,v0,0xdf
     4ec:	304300ff 	andi	v1,v0,0xff
     4f0:	a0c20034 	sb	v0,52(a2)
     4f4:	acc00030 	sw	zero,48(a2)
     4f8:	1060000c 	beqz	v1,52c <OS_FlagTaskRdy+0x54>
     4fc:	a0c00035 	sb	zero,53(a2)
     500:	8ce20004 	lw	v0,4(a3)
     504:	00002021 	move	a0,zero
     508:	10400017 	beqz	v0,568 <OS_FlagTaskRdy+0x90>
     50c:	8ce30000 	lw	v1,0(a3)
     510:	10600002 	beqz	v1,51c <OS_FlagTaskRdy+0x44>
     514:	ac430000 	sw	v1,0(v0)
     518:	ac620004 	sw	v0,4(v1)
     51c:	8ce30008 	lw	v1,8(a3)
     520:	00801021 	move	v0,a0
     524:	03e00008 	jr	ra
     528:	ac600028 	sw	zero,40(v1)
     52c:	90c3003a 	lbu	v1,58(a2)
     530:	93827840 	lbu	v0,30784(gp)
     534:	00431025 	or	v0,v0,v1
     538:	a3827840 	sb	v0,30784(gp)
     53c:	90c40038 	lbu	a0,56(a2)
     540:	27837844 	addiu	v1,gp,30788
     544:	00641821 	addu	v1,v1,a0
     548:	90620000 	lbu	v0,0(v1)
     54c:	90c50039 	lbu	a1,57(a2)
     550:	24040001 	li	a0,1
     554:	00451025 	or	v0,v0,a1
     558:	a0620000 	sb	v0,0(v1)
     55c:	8ce20004 	lw	v0,4(a3)
     560:	1440ffeb 	bnez	v0,510 <OS_FlagTaskRdy+0x38>
     564:	8ce30000 	lw	v1,0(a3)
     568:	8ce2000c 	lw	v0,12(a3)
     56c:	1060ffeb 	beqz	v1,51c <OS_FlagTaskRdy+0x44>
     570:	ac430004 	sw	v1,4(v0)
     574:	ac600004 	sw	zero,4(v1)
     578:	8ce30008 	lw	v1,8(a3)
     57c:	00801021 	move	v0,a0
     580:	03e00008 	jr	ra
     584:	ac600028 	sw	zero,40(v1)

00000588 <OS_FlagUnlink>:
     588:	8c820004 	lw	v0,4(a0)
     58c:	10400007 	beqz	v0,5ac <OS_FlagUnlink+0x24>
     590:	8c830000 	lw	v1,0(a0)
     594:	10600002 	beqz	v1,5a0 <OS_FlagUnlink+0x18>
     598:	ac430000 	sw	v1,0(v0)
     59c:	ac620004 	sw	v0,4(v1)
     5a0:	8c820008 	lw	v0,8(a0)
     5a4:	03e00008 	jr	ra
     5a8:	ac400028 	sw	zero,40(v0)
     5ac:	8c82000c 	lw	v0,12(a0)
     5b0:	1060fffb 	beqz	v1,5a0 <OS_FlagUnlink+0x18>
     5b4:	ac430004 	sw	v1,4(v0)
     5b8:	8c820008 	lw	v0,8(a0)
     5bc:	ac600004 	sw	zero,4(v1)
     5c0:	03e00008 	jr	ra
     5c4:	ac400028 	sw	zero,40(v0)

000005c8 <OS_FlagInit>:
     5c8:	27bdffe8 	addiu	sp,sp,-24
     5cc:	afb00010 	sw	s0,16(sp)
     5d0:	3c100001 	lui	s0,0x1
     5d4:	2604858c 	addiu	a0,s0,-31348
     5d8:	afbf0014 	sw	ra,20(sp)
     5dc:	0c00176a 	jal	5da8 <OS_MemClr>
     5e0:	24050050 	li	a1,80
     5e4:	3c020000 	lui	v0,0x0
     5e8:	244477a4 	addiu	a0,v0,30628
     5ec:	3c030001 	lui	v1,0x1
     5f0:	3c020001 	lui	v0,0x1
     5f4:	2463859c 	addiu	v1,v1,-31332
     5f8:	244285dc 	addiu	v0,v0,-31268
     5fc:	00802821 	move	a1,a0
     600:	a060fff0 	sb	zero,-16(v1)
     604:	ac63fff4 	sw	v1,-12(v1)
     608:	ac64fffc 	sw	a0,-4(v1)
     60c:	24630010 	addiu	v1,v1,16
     610:	1443fffb 	bne	v0,v1,600 <OS_FlagInit+0x38>
     614:	00000000 	nop
     618:	2602858c 	addiu	v0,s0,-31348
     61c:	af827864 	sw	v0,30820(gp)
     620:	a0400040 	sb	zero,64(v0)
     624:	8fbf0014 	lw	ra,20(sp)
     628:	8fb00010 	lw	s0,16(sp)
     62c:	ac45004c 	sw	a1,76(v0)
     630:	ac400044 	sw	zero,68(v0)
     634:	03e00008 	jr	ra
     638:	27bd0018 	addiu	sp,sp,24

0000063c <OSFlagQuery>:
     63c:	27bdffd8 	addiu	sp,sp,-40
     640:	afb10020 	sw	s1,32(sp)
     644:	afb0001c 	sw	s0,28(sp)
     648:	afbf0024 	sw	ra,36(sp)
     64c:	90830000 	lbu	v1,0(a0)
     650:	24020005 	li	v0,5
     654:	00808021 	move	s0,a0
     658:	00a08821 	move	s1,a1
     65c:	afa00010 	sw	zero,16(sp)
     660:	10620009 	beq	v1,v0,688 <OSFlagQuery+0x4c>
     664:	8fbf0024 	lw	ra,36(sp)
     668:	24020001 	li	v0,1
     66c:	00008021 	move	s0,zero
     670:	a0a20000 	sb	v0,0(a1)
     674:	8fb10020 	lw	s1,32(sp)
     678:	02001021 	move	v0,s0
     67c:	8fb0001c 	lw	s0,28(sp)
     680:	03e00008 	jr	ra
     684:	27bd0028 	addiu	sp,sp,40
     688:	0c001c9e 	jal	7278 <OS_CPU_SR_Save>
     68c:	00000000 	nop
     690:	afa20010 	sw	v0,16(sp)
     694:	8fa40010 	lw	a0,16(sp)
     698:	0c001ca5 	jal	7294 <OS_CPU_SR_Restore>
     69c:	96100008 	lhu	s0,8(s0)
     6a0:	a2200000 	sb	zero,0(s1)
     6a4:	8fbf0024 	lw	ra,36(sp)
     6a8:	02001021 	move	v0,s0
     6ac:	8fb10020 	lw	s1,32(sp)
     6b0:	8fb0001c 	lw	s0,28(sp)
     6b4:	03e00008 	jr	ra
     6b8:	27bd0028 	addiu	sp,sp,40

000006bc <OSFlagPendGetFlagsRdy>:
     6bc:	27bdffe0 	addiu	sp,sp,-32
     6c0:	afbf001c 	sw	ra,28(sp)
     6c4:	afb00018 	sw	s0,24(sp)
     6c8:	afa00010 	sw	zero,16(sp)
     6cc:	0c001c9e 	jal	7278 <OS_CPU_SR_Save>
     6d0:	00000000 	nop
     6d4:	afa20010 	sw	v0,16(sp)
     6d8:	8fa40010 	lw	a0,16(sp)
     6dc:	8f827854 	lw	v0,30804(gp)
     6e0:	0c001ca5 	jal	7294 <OS_CPU_SR_Restore>
     6e4:	9450002c 	lhu	s0,44(v0)
     6e8:	8fbf001c 	lw	ra,28(sp)
     6ec:	02001021 	move	v0,s0
     6f0:	8fb00018 	lw	s0,24(sp)
     6f4:	03e00008 	jr	ra
     6f8:	27bd0020 	addiu	sp,sp,32

000006fc <OSFlagNameSet>:
     6fc:	93827850 	lbu	v0,30800(gp)
     700:	27bdffd8 	addiu	sp,sp,-40
     704:	afb20020 	sw	s2,32(sp)
     708:	afb1001c 	sw	s1,28(sp)
     70c:	afb00018 	sw	s0,24(sp)
     710:	afbf0024 	sw	ra,36(sp)
     714:	00808821 	move	s1,a0
     718:	00a09021 	move	s2,a1
     71c:	00c08021 	move	s0,a2
     720:	afa00010 	sw	zero,16(sp)
     724:	10400008 	beqz	v0,748 <OSFlagNameSet+0x4c>
     728:	8fbf0024 	lw	ra,36(sp)
     72c:	24020012 	li	v0,18
     730:	8fb20020 	lw	s2,32(sp)
     734:	8fb1001c 	lw	s1,28(sp)
     738:	8fb00018 	lw	s0,24(sp)
     73c:	a0c20000 	sb	v0,0(a2)
     740:	03e00008 	jr	ra
     744:	27bd0028 	addiu	sp,sp,40
     748:	0c001c9e 	jal	7278 <OS_CPU_SR_Save>
     74c:	00000000 	nop
     750:	92230000 	lbu	v1,0(s1)
     754:	afa20010 	sw	v0,16(sp)
     758:	24020005 	li	v0,5
     75c:	1062000c 	beq	v1,v0,790 <OSFlagNameSet+0x94>
     760:	00000000 	nop
     764:	8fa40010 	lw	a0,16(sp)
     768:	0c001ca5 	jal	7294 <OS_CPU_SR_Restore>
     76c:	00000000 	nop
     770:	24020001 	li	v0,1
     774:	a2020000 	sb	v0,0(s0)
     778:	8fbf0024 	lw	ra,36(sp)
     77c:	8fb20020 	lw	s2,32(sp)
     780:	8fb1001c 	lw	s1,28(sp)
     784:	8fb00018 	lw	s0,24(sp)
     788:	03e00008 	jr	ra
     78c:	27bd0028 	addiu	sp,sp,40
     790:	8fa40010 	lw	a0,16(sp)
     794:	0c001ca5 	jal	7294 <OS_CPU_SR_Restore>
     798:	ae32000c 	sw	s2,12(s1)
     79c:	a2000000 	sb	zero,0(s0)
     7a0:	8fbf0024 	lw	ra,36(sp)
     7a4:	8fb20020 	lw	s2,32(sp)
     7a8:	8fb1001c 	lw	s1,28(sp)
     7ac:	8fb00018 	lw	s0,24(sp)
     7b0:	03e00008 	jr	ra
     7b4:	27bd0028 	addiu	sp,sp,40

000007b8 <OSFlagCreate>:
     7b8:	93827850 	lbu	v0,30800(gp)
     7bc:	27bdffd8 	addiu	sp,sp,-40
     7c0:	afb20020 	sw	s2,32(sp)
     7c4:	afb1001c 	sw	s1,28(sp)
     7c8:	afbf0024 	sw	ra,36(sp)
     7cc:	afb00018 	sw	s0,24(sp)
     7d0:	00a09021 	move	s2,a1
     7d4:	3091ffff 	andi	s1,a0,0xffff
     7d8:	afa00010 	sw	zero,16(sp)
     7dc:	14400025 	bnez	v0,874 <OSFlagCreate+0xbc>
     7e0:	24020010 	li	v0,16
     7e4:	0c001c9e 	jal	7278 <OS_CPU_SR_Save>
     7e8:	00000000 	nop
     7ec:	8f907864 	lw	s0,30820(gp)
     7f0:	afa20010 	sw	v0,16(sp)
     7f4:	12000013 	beqz	s0,844 <OSFlagCreate+0x8c>
     7f8:	24030005 	li	v1,5
     7fc:	8e020004 	lw	v0,4(s0)
     800:	af827864 	sw	v0,30820(gp)
     804:	a2030000 	sb	v1,0(s0)
     808:	3c020000 	lui	v0,0x0
     80c:	244277a4 	addiu	v0,v0,30628
     810:	8fa40010 	lw	a0,16(sp)
     814:	a6110008 	sh	s1,8(s0)
     818:	ae02000c 	sw	v0,12(s0)
     81c:	0c001ca5 	jal	7294 <OS_CPU_SR_Restore>
     820:	ae000004 	sw	zero,4(s0)
     824:	a2400000 	sb	zero,0(s2)
     828:	8fbf0024 	lw	ra,36(sp)
     82c:	02001021 	move	v0,s0
     830:	8fb20020 	lw	s2,32(sp)
     834:	8fb1001c 	lw	s1,28(sp)
     838:	8fb00018 	lw	s0,24(sp)
     83c:	03e00008 	jr	ra
     840:	27bd0028 	addiu	sp,sp,40
     844:	8fa40010 	lw	a0,16(sp)
     848:	0c001ca5 	jal	7294 <OS_CPU_SR_Restore>
     84c:	00000000 	nop
     850:	24020072 	li	v0,114
     854:	a2420000 	sb	v0,0(s2)
     858:	8fbf0024 	lw	ra,36(sp)
     85c:	02001021 	move	v0,s0
     860:	8fb20020 	lw	s2,32(sp)
     864:	8fb1001c 	lw	s1,28(sp)
     868:	8fb00018 	lw	s0,24(sp)
     86c:	03e00008 	jr	ra
     870:	27bd0028 	addiu	sp,sp,40
     874:	a0a20000 	sb	v0,0(a1)
     878:	0800020a 	j	828 <OSFlagCreate+0x70>
     87c:	00008021 	move	s0,zero

00000880 <OSFlagAccept>:
     880:	27bdffc8 	addiu	sp,sp,-56
     884:	afb4002c 	sw	s4,44(sp)
     888:	afb30028 	sw	s3,40(sp)
     88c:	afb20024 	sw	s2,36(sp)
     890:	afb0001c 	sw	s0,28(sp)
     894:	afbf0034 	sw	ra,52(sp)
     898:	afb50030 	sw	s5,48(sp)
     89c:	afb10020 	sw	s1,32(sp)
     8a0:	90830000 	lbu	v1,0(a0)
     8a4:	24020005 	li	v0,5
     8a8:	00809821 	move	s3,a0
     8ac:	00e0a021 	move	s4,a3
     8b0:	30b2ffff 	andi	s2,a1,0xffff
     8b4:	30d000ff 	andi	s0,a2,0xff
     8b8:	afa00010 	sw	zero,16(sp)
     8bc:	1062000d 	beq	v1,v0,8f4 <OSFlagAccept+0x74>
     8c0:	24020001 	li	v0,1
     8c4:	a0e20000 	sb	v0,0(a3)
     8c8:	00008821 	move	s1,zero
     8cc:	8fbf0034 	lw	ra,52(sp)
     8d0:	02201021 	move	v0,s1
     8d4:	8fb50030 	lw	s5,48(sp)
     8d8:	8fb4002c 	lw	s4,44(sp)
     8dc:	8fb30028 	lw	s3,40(sp)
     8e0:	8fb20024 	lw	s2,36(sp)
     8e4:	8fb10020 	lw	s1,32(sp)
     8e8:	8fb0001c 	lw	s0,28(sp)
     8ec:	03e00008 	jr	ra
     8f0:	27bd0038 	addiu	sp,sp,56
     8f4:	32020080 	andi	v0,s0,0x80
     8f8:	1440001d 	bnez	v0,970 <OSFlagAccept+0xf0>
     8fc:	00000000 	nop
     900:	0c001c9e 	jal	7278 <OS_CPU_SR_Save>
     904:	a2800000 	sb	zero,0(s4)
     908:	24030001 	li	v1,1
     90c:	0000a821 	move	s5,zero
     910:	afa20010 	sw	v0,16(sp)
     914:	1203001e 	beq	s0,v1,990 <OSFlagAccept+0x110>
     918:	00000000 	nop
     91c:	16000025 	bnez	s0,9b4 <OSFlagAccept+0x134>
     920:	24020002 	li	v0,2
     924:	96650008 	lhu	a1,8(s3)
     928:	00051027 	nor	v0,zero,a1
     92c:	02428824 	and	s1,s2,v0
     930:	1232003c 	beq	s1,s2,a24 <OSFlagAccept+0x1a4>
     934:	24020070 	li	v0,112
     938:	a2820000 	sb	v0,0(s4)
     93c:	8fa40010 	lw	a0,16(sp)
     940:	0c001ca5 	jal	7294 <OS_CPU_SR_Restore>
     944:	00000000 	nop
     948:	8fbf0034 	lw	ra,52(sp)
     94c:	02201021 	move	v0,s1
     950:	8fb50030 	lw	s5,48(sp)
     954:	8fb4002c 	lw	s4,44(sp)
     958:	8fb30028 	lw	s3,40(sp)
     95c:	8fb20024 	lw	s2,36(sp)
     960:	8fb10020 	lw	s1,32(sp)
     964:	8fb0001c 	lw	s0,28(sp)
     968:	03e00008 	jr	ra
     96c:	27bd0038 	addiu	sp,sp,56
     970:	0c001c9e 	jal	7278 <OS_CPU_SR_Save>
     974:	a2800000 	sb	zero,0(s4)
     978:	3210007f 	andi	s0,s0,0x7f
     97c:	24030001 	li	v1,1
     980:	24150001 	li	s5,1
     984:	afa20010 	sw	v0,16(sp)
     988:	1603ffe4 	bne	s0,v1,91c <OSFlagAccept+0x9c>
     98c:	00000000 	nop
     990:	96630008 	lhu	v1,8(s3)
     994:	00031027 	nor	v0,zero,v1
     998:	02428824 	and	s1,s2,v0
     99c:	1220ffe6 	beqz	s1,938 <OSFlagAccept+0xb8>
     9a0:	24020070 	li	v0,112
     9a4:	16b0ffe5 	bne	s5,s0,93c <OSFlagAccept+0xbc>
     9a8:	02231025 	or	v0,s1,v1
     9ac:	0800024f 	j	93c <OSFlagAccept+0xbc>
     9b0:	a6620008 	sh	v0,8(s3)
     9b4:	12020012 	beq	s0,v0,a00 <OSFlagAccept+0x180>
     9b8:	24020003 	li	v0,3
     9bc:	12020007 	beq	s0,v0,9dc <OSFlagAccept+0x15c>
     9c0:	00000000 	nop
     9c4:	8fa40010 	lw	a0,16(sp)
     9c8:	0c001ca5 	jal	7294 <OS_CPU_SR_Restore>
     9cc:	00008821 	move	s1,zero
     9d0:	2402006f 	li	v0,111
     9d4:	08000233 	j	8cc <OSFlagAccept+0x4c>
     9d8:	a2820000 	sb	v0,0(s4)
     9dc:	96640008 	lhu	a0,8(s3)
     9e0:	02448824 	and	s1,s2,a0
     9e4:	1220ffd4 	beqz	s1,938 <OSFlagAccept+0xb8>
     9e8:	24020070 	li	v0,112
     9ec:	16a3ffd3 	bne	s5,v1,93c <OSFlagAccept+0xbc>
     9f0:	00111027 	nor	v0,zero,s1
     9f4:	00821024 	and	v0,a0,v0
     9f8:	0800024f 	j	93c <OSFlagAccept+0xbc>
     9fc:	a6620008 	sh	v0,8(s3)
     a00:	96650008 	lhu	a1,8(s3)
     a04:	02458824 	and	s1,s2,a1
     a08:	1632ffcb 	bne	s1,s2,938 <OSFlagAccept+0xb8>
     a0c:	24020070 	li	v0,112
     a10:	16a3ffca 	bne	s5,v1,93c <OSFlagAccept+0xbc>
     a14:	00121027 	nor	v0,zero,s2
     a18:	00a21024 	and	v0,a1,v0
     a1c:	0800024f 	j	93c <OSFlagAccept+0xbc>
     a20:	a6620008 	sh	v0,8(s3)
     a24:	16a3ffc5 	bne	s5,v1,93c <OSFlagAccept+0xbc>
     a28:	00b21025 	or	v0,a1,s2
     a2c:	0800024f 	j	93c <OSFlagAccept+0xbc>
     a30:	a6620008 	sh	v0,8(s3)

00000a34 <OSFlagPost>:
     a34:	27bdffc8 	addiu	sp,sp,-56
     a38:	afb30024 	sw	s3,36(sp)
     a3c:	afb20020 	sw	s2,32(sp)
     a40:	afb1001c 	sw	s1,28(sp)
     a44:	afb00018 	sw	s0,24(sp)
     a48:	afbf0034 	sw	ra,52(sp)
     a4c:	afb60030 	sw	s6,48(sp)
     a50:	afb5002c 	sw	s5,44(sp)
     a54:	afb40028 	sw	s4,40(sp)
     a58:	90830000 	lbu	v1,0(a0)
     a5c:	24020005 	li	v0,5
     a60:	00809021 	move	s2,a0
     a64:	00e09821 	move	s3,a3
     a68:	30b1ffff 	andi	s1,a1,0xffff
     a6c:	30d000ff 	andi	s0,a2,0xff
     a70:	afa00010 	sw	zero,16(sp)
     a74:	1062000e 	beq	v1,v0,ab0 <OSFlagPost+0x7c>
     a78:	24020001 	li	v0,1
     a7c:	a0e20000 	sb	v0,0(a3)
     a80:	00008021 	move	s0,zero
     a84:	8fbf0034 	lw	ra,52(sp)
     a88:	02001021 	move	v0,s0
     a8c:	8fb60030 	lw	s6,48(sp)
     a90:	8fb5002c 	lw	s5,44(sp)
     a94:	8fb40028 	lw	s4,40(sp)
     a98:	8fb30024 	lw	s3,36(sp)
     a9c:	8fb20020 	lw	s2,32(sp)
     aa0:	8fb1001c 	lw	s1,28(sp)
     aa4:	8fb00018 	lw	s0,24(sp)
     aa8:	03e00008 	jr	ra
     aac:	27bd0038 	addiu	sp,sp,56
     ab0:	0c001c9e 	jal	7278 <OS_CPU_SR_Save>
     ab4:	00000000 	nop
     ab8:	afa20010 	sw	v0,16(sp)
     abc:	16000054 	bnez	s0,c10 <OSFlagPost+0x1dc>
     ac0:	24020001 	li	v0,1
     ac4:	96430008 	lhu	v1,8(s2)
     ac8:	00111027 	nor	v0,zero,s1
     acc:	00431024 	and	v0,v0,v1
     ad0:	a6420008 	sh	v0,8(s2)
     ad4:	8e500004 	lw	s0,4(s2)
     ad8:	12000059 	beqz	s0,c40 <OSFlagPost+0x20c>
     adc:	0000a021 	move	s4,zero
     ae0:	24110001 	li	s1,1
     ae4:	24150002 	li	s5,2
     ae8:	24160003 	li	s6,3
     aec:	92020012 	lbu	v0,18(s0)
     af0:	1051002d 	beq	v0,s1,ba8 <OSFlagPost+0x174>
     af4:	00000000 	nop
     af8:	14400017 	bnez	v0,b58 <OSFlagPost+0x124>
     afc:	00000000 	nop
     b00:	96420008 	lhu	v0,8(s2)
     b04:	96050010 	lhu	a1,16(s0)
     b08:	00021027 	nor	v0,zero,v0
     b0c:	00a21024 	and	v0,a1,v0
     b10:	10a2002b 	beq	a1,v0,bc0 <OSFlagPost+0x18c>
     b14:	00000000 	nop
     b18:	8e100000 	lw	s0,0(s0)
     b1c:	1600fff3 	bnez	s0,aec <OSFlagPost+0xb8>
     b20:	00000000 	nop
     b24:	8fa40010 	lw	a0,16(sp)
     b28:	0c001ca5 	jal	7294 <OS_CPU_SR_Restore>
     b2c:	00000000 	nop
     b30:	16800048 	bnez	s4,c54 <OSFlagPost+0x220>
     b34:	00000000 	nop
     b38:	0c001c9e 	jal	7278 <OS_CPU_SR_Save>
     b3c:	00000000 	nop
     b40:	afa20010 	sw	v0,16(sp)
     b44:	8fa40010 	lw	a0,16(sp)
     b48:	0c001ca5 	jal	7294 <OS_CPU_SR_Restore>
     b4c:	96500008 	lhu	s0,8(s2)
     b50:	080002a1 	j	a84 <OSFlagPost+0x50>
     b54:	a2600000 	sb	zero,0(s3)
     b58:	10550026 	beq	v0,s5,bf4 <OSFlagPost+0x1c0>
     b5c:	00000000 	nop
     b60:	1056001d 	beq	v0,s6,bd8 <OSFlagPost+0x1a4>
     b64:	00000000 	nop
     b68:	8fa40010 	lw	a0,16(sp)
     b6c:	0c001ca5 	jal	7294 <OS_CPU_SR_Restore>
     b70:	00008021 	move	s0,zero
     b74:	2402006f 	li	v0,111
     b78:	a2620000 	sb	v0,0(s3)
     b7c:	8fbf0034 	lw	ra,52(sp)
     b80:	02001021 	move	v0,s0
     b84:	8fb60030 	lw	s6,48(sp)
     b88:	8fb5002c 	lw	s5,44(sp)
     b8c:	8fb40028 	lw	s4,40(sp)
     b90:	8fb30024 	lw	s3,36(sp)
     b94:	8fb20020 	lw	s2,32(sp)
     b98:	8fb1001c 	lw	s1,28(sp)
     b9c:	8fb00018 	lw	s0,24(sp)
     ba0:	03e00008 	jr	ra
     ba4:	27bd0038 	addiu	sp,sp,56
     ba8:	96420008 	lhu	v0,8(s2)
     bac:	96030010 	lhu	v1,16(s0)
     bb0:	00021027 	nor	v0,zero,v0
     bb4:	00432824 	and	a1,v0,v1
     bb8:	10a0ffd7 	beqz	a1,b18 <OSFlagPost+0xe4>
     bbc:	00000000 	nop
     bc0:	0c000136 	jal	4d8 <OS_FlagTaskRdy>
     bc4:	02002021 	move	a0,s0
     bc8:	1451ffd3 	bne	v0,s1,b18 <OSFlagPost+0xe4>
     bcc:	00000000 	nop
     bd0:	080002c6 	j	b18 <OSFlagPost+0xe4>
     bd4:	24140001 	li	s4,1
     bd8:	96430008 	lhu	v1,8(s2)
     bdc:	96020010 	lhu	v0,16(s0)
     be0:	00432824 	and	a1,v0,v1
     be4:	10a0ffcc 	beqz	a1,b18 <OSFlagPost+0xe4>
     be8:	00000000 	nop
     bec:	080002f0 	j	bc0 <OSFlagPost+0x18c>
     bf0:	00000000 	nop
     bf4:	96050010 	lhu	a1,16(s0)
     bf8:	96420008 	lhu	v0,8(s2)
     bfc:	00a21024 	and	v0,a1,v0
     c00:	14a2ffc5 	bne	a1,v0,b18 <OSFlagPost+0xe4>
     c04:	00000000 	nop
     c08:	080002f0 	j	bc0 <OSFlagPost+0x18c>
     c0c:	00000000 	nop
     c10:	12020007 	beq	s0,v0,c30 <OSFlagPost+0x1fc>
     c14:	00000000 	nop
     c18:	8fa40010 	lw	a0,16(sp)
     c1c:	0c001ca5 	jal	7294 <OS_CPU_SR_Restore>
     c20:	00008021 	move	s0,zero
     c24:	24020071 	li	v0,113
     c28:	080002a1 	j	a84 <OSFlagPost+0x50>
     c2c:	a2620000 	sb	v0,0(s3)
     c30:	96420008 	lhu	v0,8(s2)
     c34:	02221025 	or	v0,s1,v0
     c38:	080002b5 	j	ad4 <OSFlagPost+0xa0>
     c3c:	a6420008 	sh	v0,8(s2)
     c40:	8fa40010 	lw	a0,16(sp)
     c44:	0c001ca5 	jal	7294 <OS_CPU_SR_Restore>
     c48:	00000000 	nop
     c4c:	080002ce 	j	b38 <OSFlagPost+0x104>
     c50:	00000000 	nop
     c54:	0c001790 	jal	5e40 <OS_Sched>
     c58:	00000000 	nop
     c5c:	080002ce 	j	b38 <OSFlagPost+0x104>
     c60:	00000000 	nop

00000c64 <OSFlagPend>:
     c64:	93827850 	lbu	v0,30800(gp)
     c68:	27bdffb0 	addiu	sp,sp,-80
     c6c:	afb40044 	sw	s4,68(sp)
     c70:	afb30040 	sw	s3,64(sp)
     c74:	afb2003c 	sw	s2,60(sp)
     c78:	afb10038 	sw	s1,56(sp)
     c7c:	afbf004c 	sw	ra,76(sp)
     c80:	afb50048 	sw	s5,72(sp)
     c84:	afb00034 	sw	s0,52(sp)
     c88:	00809821 	move	s3,a0
     c8c:	00e0a021 	move	s4,a3
     c90:	30b1ffff 	andi	s1,a1,0xffff
     c94:	30d200ff 	andi	s2,a2,0xff
     c98:	afa00018 	sw	zero,24(sp)
     c9c:	14400021 	bnez	v0,d24 <OSFlagPend+0xc0>
     ca0:	93827804 	lbu	v0,30724(gp)
     ca4:	14400011 	bnez	v0,cec <OSFlagPend+0x88>
     ca8:	24020005 	li	v0,5
     cac:	90830000 	lbu	v1,0(a0)
     cb0:	1062002a 	beq	v1,v0,d5c <OSFlagPend+0xf8>
     cb4:	8fa30060 	lw	v1,96(sp)
     cb8:	24020001 	li	v0,1
     cbc:	a0620000 	sb	v0,0(v1)
     cc0:	8fbf004c 	lw	ra,76(sp)
     cc4:	00008021 	move	s0,zero
     cc8:	02001021 	move	v0,s0
     ccc:	8fb50048 	lw	s5,72(sp)
     cd0:	8fb40044 	lw	s4,68(sp)
     cd4:	8fb30040 	lw	s3,64(sp)
     cd8:	8fb2003c 	lw	s2,60(sp)
     cdc:	8fb10038 	lw	s1,56(sp)
     ce0:	8fb00034 	lw	s0,52(sp)
     ce4:	03e00008 	jr	ra
     ce8:	27bd0050 	addiu	sp,sp,80
     cec:	8fa30060 	lw	v1,96(sp)
     cf0:	2402000d 	li	v0,13
     cf4:	a0620000 	sb	v0,0(v1)
     cf8:	00008021 	move	s0,zero
     cfc:	8fbf004c 	lw	ra,76(sp)
     d00:	02001021 	move	v0,s0
     d04:	8fb50048 	lw	s5,72(sp)
     d08:	8fb40044 	lw	s4,68(sp)
     d0c:	8fb30040 	lw	s3,64(sp)
     d10:	8fb2003c 	lw	s2,60(sp)
     d14:	8fb10038 	lw	s1,56(sp)
     d18:	8fb00034 	lw	s0,52(sp)
     d1c:	03e00008 	jr	ra
     d20:	27bd0050 	addiu	sp,sp,80
     d24:	8fa30060 	lw	v1,96(sp)
     d28:	24020002 	li	v0,2
     d2c:	a0620000 	sb	v0,0(v1)
     d30:	8fbf004c 	lw	ra,76(sp)
     d34:	00008021 	move	s0,zero
     d38:	02001021 	move	v0,s0
     d3c:	8fb50048 	lw	s5,72(sp)
     d40:	8fb40044 	lw	s4,68(sp)
     d44:	8fb30040 	lw	s3,64(sp)
     d48:	8fb2003c 	lw	s2,60(sp)
     d4c:	8fb10038 	lw	s1,56(sp)
     d50:	8fb00034 	lw	s0,52(sp)
     d54:	03e00008 	jr	ra
     d58:	27bd0050 	addiu	sp,sp,80
     d5c:	32420080 	andi	v0,s2,0x80
     d60:	1440001a 	bnez	v0,dcc <OSFlagPend+0x168>
     d64:	00000000 	nop
     d68:	0000a821 	move	s5,zero
     d6c:	0c001c9e 	jal	7278 <OS_CPU_SR_Save>
     d70:	00000000 	nop
     d74:	24030001 	li	v1,1
     d78:	afa20018 	sw	v0,24(sp)
     d7c:	12430021 	beq	s2,v1,e04 <OSFlagPend+0x1a0>
     d80:	00000000 	nop
     d84:	16400014 	bnez	s2,dd8 <OSFlagPend+0x174>
     d88:	24020002 	li	v0,2
     d8c:	96650008 	lhu	a1,8(s3)
     d90:	00051027 	nor	v0,zero,a1
     d94:	02228024 	and	s0,s1,v0
     d98:	1611003e 	bne	s0,s1,e94 <OSFlagPend+0x230>
     d9c:	02602021 	move	a0,s3
     da0:	16a30004 	bne	s5,v1,db4 <OSFlagPend+0x150>
     da4:	8f827854 	lw	v0,30804(gp)
     da8:	00b11025 	or	v0,a1,s1
     dac:	a6620008 	sh	v0,8(s3)
     db0:	8f827854 	lw	v0,30804(gp)
     db4:	8fa40018 	lw	a0,24(sp)
     db8:	0c001ca5 	jal	7294 <OS_CPU_SR_Restore>
     dbc:	a450002c 	sh	s0,44(v0)
     dc0:	8fa20060 	lw	v0,96(sp)
     dc4:	0800033f 	j	cfc <OSFlagPend+0x98>
     dc8:	a0400000 	sb	zero,0(v0)
     dcc:	3252007f 	andi	s2,s2,0x7f
     dd0:	0800035b 	j	d6c <OSFlagPend+0x108>
     dd4:	24150001 	li	s5,1
     dd8:	12420024 	beq	s2,v0,e6c <OSFlagPend+0x208>
     ddc:	24020003 	li	v0,3
     de0:	12420018 	beq	s2,v0,e44 <OSFlagPend+0x1e0>
     de4:	00000000 	nop
     de8:	8fa40018 	lw	a0,24(sp)
     dec:	0c001ca5 	jal	7294 <OS_CPU_SR_Restore>
     df0:	00008021 	move	s0,zero
     df4:	8fa30060 	lw	v1,96(sp)
     df8:	2402006f 	li	v0,111
     dfc:	0800033f 	j	cfc <OSFlagPend+0x98>
     e00:	a0620000 	sb	v0,0(v1)
     e04:	96630008 	lhu	v1,8(s3)
     e08:	00031027 	nor	v0,zero,v1
     e0c:	02228024 	and	s0,s1,v0
     e10:	12000060 	beqz	s0,f94 <OSFlagPend+0x330>
     e14:	02602021 	move	a0,s3
     e18:	16b20004 	bne	s5,s2,e2c <OSFlagPend+0x1c8>
     e1c:	8f827854 	lw	v0,30804(gp)
     e20:	02031025 	or	v0,s0,v1
     e24:	a6620008 	sh	v0,8(s3)
     e28:	8f827854 	lw	v0,30804(gp)
     e2c:	8fa40018 	lw	a0,24(sp)
     e30:	0c001ca5 	jal	7294 <OS_CPU_SR_Restore>
     e34:	a450002c 	sh	s0,44(v0)
     e38:	8fa30060 	lw	v1,96(sp)
     e3c:	0800033f 	j	cfc <OSFlagPend+0x98>
     e40:	a0600000 	sb	zero,0(v1)
     e44:	96640008 	lhu	a0,8(s3)
     e48:	02248024 	and	s0,s1,a0
     e4c:	1200005b 	beqz	s0,fbc <OSFlagPend+0x358>
     e50:	02203021 	move	a2,s1
     e54:	16a3fff5 	bne	s5,v1,e2c <OSFlagPend+0x1c8>
     e58:	8f827854 	lw	v0,30804(gp)
     e5c:	00101027 	nor	v0,zero,s0
     e60:	00821024 	and	v0,a0,v0
     e64:	0800038a 	j	e28 <OSFlagPend+0x1c4>
     e68:	a6620008 	sh	v0,8(s3)
     e6c:	96650008 	lhu	a1,8(s3)
     e70:	02258024 	and	s0,s1,a1
     e74:	16110039 	bne	s0,s1,f5c <OSFlagPend+0x2f8>
     e78:	02602021 	move	a0,s3
     e7c:	16a3ffcd 	bne	s5,v1,db4 <OSFlagPend+0x150>
     e80:	8f827854 	lw	v0,30804(gp)
     e84:	00111027 	nor	v0,zero,s1
     e88:	00a21024 	and	v0,a1,v0
     e8c:	0800036c 	j	db0 <OSFlagPend+0x14c>
     e90:	a6620008 	sh	v0,8(s3)
     e94:	02203021 	move	a2,s1
     e98:	27a5001c 	addiu	a1,sp,28
     e9c:	00003821 	move	a3,zero
     ea0:	0c000113 	jal	44c <OS_FlagBlock>
     ea4:	afb40010 	sw	s4,16(sp)
     ea8:	8fa40018 	lw	a0,24(sp)
     eac:	0c001ca5 	jal	7294 <OS_CPU_SR_Restore>
     eb0:	00000000 	nop
     eb4:	0c001790 	jal	5e40 <OS_Sched>
     eb8:	00000000 	nop
     ebc:	0c001c9e 	jal	7278 <OS_CPU_SR_Save>
     ec0:	00000000 	nop
     ec4:	8f847854 	lw	a0,30804(gp)
     ec8:	afa20018 	sw	v0,24(sp)
     ecc:	90900035 	lbu	s0,53(a0)
     ed0:	12000014 	beqz	s0,f24 <OSFlagPend+0x2c0>
     ed4:	00000000 	nop
     ed8:	a0800035 	sb	zero,53(a0)
     edc:	8fa20020 	lw	v0,32(sp)
     ee0:	10400046 	beqz	v0,ffc <OSFlagPend+0x398>
     ee4:	8fa3001c 	lw	v1,28(sp)
     ee8:	10600002 	beqz	v1,ef4 <OSFlagPend+0x290>
     eec:	ac430000 	sw	v1,0(v0)
     ef0:	ac620004 	sw	v0,4(v1)
     ef4:	8fa20024 	lw	v0,36(sp)
     ef8:	a0800034 	sb	zero,52(a0)
     efc:	8fa40018 	lw	a0,24(sp)
     f00:	0c001ca5 	jal	7294 <OS_CPU_SR_Restore>
     f04:	ac400028 	sw	zero,40(v0)
     f08:	24020002 	li	v0,2
     f0c:	1202001d 	beq	s0,v0,f84 <OSFlagPend+0x320>
     f10:	8fa30060 	lw	v1,96(sp)
     f14:	2402000a 	li	v0,10
     f18:	a0620000 	sb	v0,0(v1)
     f1c:	0800033f 	j	cfc <OSFlagPend+0x98>
     f20:	00008021 	move	s0,zero
     f24:	12a00007 	beqz	s5,f44 <OSFlagPend+0x2e0>
     f28:	9490002c 	lhu	s0,44(a0)
     f2c:	2e420002 	sltiu	v0,s2,2
     f30:	1040002c 	beqz	v0,fe4 <OSFlagPend+0x380>
     f34:	2e420004 	sltiu	v0,s2,4
     f38:	96620008 	lhu	v0,8(s3)
     f3c:	02021025 	or	v0,s0,v0
     f40:	a6620008 	sh	v0,8(s3)
     f44:	8fa40018 	lw	a0,24(sp)
     f48:	0c001ca5 	jal	7294 <OS_CPU_SR_Restore>
     f4c:	00000000 	nop
     f50:	8fa20060 	lw	v0,96(sp)
     f54:	0800033f 	j	cfc <OSFlagPend+0x98>
     f58:	a0400000 	sb	zero,0(v0)
     f5c:	02203021 	move	a2,s1
     f60:	27a5001c 	addiu	a1,sp,28
     f64:	24070002 	li	a3,2
     f68:	0c000113 	jal	44c <OS_FlagBlock>
     f6c:	afb40010 	sw	s4,16(sp)
     f70:	8fa40018 	lw	a0,24(sp)
     f74:	0c001ca5 	jal	7294 <OS_CPU_SR_Restore>
     f78:	00000000 	nop
     f7c:	080003ad 	j	eb4 <OSFlagPend+0x250>
     f80:	00000000 	nop
     f84:	2402000e 	li	v0,14
     f88:	a0620000 	sb	v0,0(v1)
     f8c:	0800033f 	j	cfc <OSFlagPend+0x98>
     f90:	00008021 	move	s0,zero
     f94:	02203021 	move	a2,s1
     f98:	27a5001c 	addiu	a1,sp,28
     f9c:	24070001 	li	a3,1
     fa0:	0c000113 	jal	44c <OS_FlagBlock>
     fa4:	afb40010 	sw	s4,16(sp)
     fa8:	8fa40018 	lw	a0,24(sp)
     fac:	0c001ca5 	jal	7294 <OS_CPU_SR_Restore>
     fb0:	00000000 	nop
     fb4:	080003ad 	j	eb4 <OSFlagPend+0x250>
     fb8:	00000000 	nop
     fbc:	02602021 	move	a0,s3
     fc0:	27a5001c 	addiu	a1,sp,28
     fc4:	24070003 	li	a3,3
     fc8:	0c000113 	jal	44c <OS_FlagBlock>
     fcc:	afb40010 	sw	s4,16(sp)
     fd0:	8fa40018 	lw	a0,24(sp)
     fd4:	0c001ca5 	jal	7294 <OS_CPU_SR_Restore>
     fd8:	00000000 	nop
     fdc:	080003ad 	j	eb4 <OSFlagPend+0x250>
     fe0:	00000000 	nop
     fe4:	1040ff80 	beqz	v0,de8 <OSFlagPend+0x184>
     fe8:	00101027 	nor	v0,zero,s0
     fec:	96630008 	lhu	v1,8(s3)
     ff0:	00431024 	and	v0,v0,v1
     ff4:	080003d1 	j	f44 <OSFlagPend+0x2e0>
     ff8:	a6620008 	sh	v0,8(s3)
     ffc:	8fa20028 	lw	v0,40(sp)
    1000:	1060ffbc 	beqz	v1,ef4 <OSFlagPend+0x290>
    1004:	ac430004 	sw	v1,4(v0)
    1008:	080003bd 	j	ef4 <OSFlagPend+0x290>
    100c:	ac600004 	sw	zero,4(v1)

00001010 <OSFlagDel>:
    1010:	93827850 	lbu	v0,30800(gp)
    1014:	27bdffd0 	addiu	sp,sp,-48
    1018:	afb20024 	sw	s2,36(sp)
    101c:	afb10020 	sw	s1,32(sp)
    1020:	afb0001c 	sw	s0,28(sp)
    1024:	afbf002c 	sw	ra,44(sp)
    1028:	afb30028 	sw	s3,40(sp)
    102c:	00808821 	move	s1,a0
    1030:	00c09021 	move	s2,a2
    1034:	30b000ff 	andi	s0,a1,0xff
    1038:	afa00010 	sw	zero,16(sp)
    103c:	1440000d 	bnez	v0,1074 <OSFlagDel+0x64>
    1040:	24020005 	li	v0,5
    1044:	90830000 	lbu	v1,0(a0)
    1048:	10620014 	beq	v1,v0,109c <OSFlagDel+0x8c>
    104c:	24020001 	li	v0,1
    1050:	a0c20000 	sb	v0,0(a2)
    1054:	8fbf002c 	lw	ra,44(sp)
    1058:	02201021 	move	v0,s1
    105c:	8fb30028 	lw	s3,40(sp)
    1060:	8fb20024 	lw	s2,36(sp)
    1064:	8fb10020 	lw	s1,32(sp)
    1068:	8fb0001c 	lw	s0,28(sp)
    106c:	03e00008 	jr	ra
    1070:	27bd0030 	addiu	sp,sp,48
    1074:	8fbf002c 	lw	ra,44(sp)
    1078:	2402000f 	li	v0,15
    107c:	a0c20000 	sb	v0,0(a2)
    1080:	8fb30028 	lw	s3,40(sp)
    1084:	02201021 	move	v0,s1
    1088:	8fb20024 	lw	s2,36(sp)
    108c:	8fb10020 	lw	s1,32(sp)
    1090:	8fb0001c 	lw	s0,28(sp)
    1094:	03e00008 	jr	ra
    1098:	27bd0030 	addiu	sp,sp,48
    109c:	0c001c9e 	jal	7278 <OS_CPU_SR_Save>
    10a0:	00000000 	nop
    10a4:	8e240004 	lw	a0,4(s1)
    10a8:	afa20010 	sw	v0,16(sp)
    10ac:	1600000f 	bnez	s0,10ec <OSFlagDel+0xdc>
    10b0:	0004982b 	sltu	s3,zero,a0
    10b4:	16600016 	bnez	s3,1110 <OSFlagDel+0x100>
    10b8:	3c020000 	lui	v0,0x0
    10bc:	a2200000 	sb	zero,0(s1)
    10c0:	8f837864 	lw	v1,30820(gp)
    10c4:	244277a4 	addiu	v0,v0,30628
    10c8:	8fa40010 	lw	a0,16(sp)
    10cc:	ae22000c 	sw	v0,12(s1)
    10d0:	ae230004 	sw	v1,4(s1)
    10d4:	a6200008 	sh	zero,8(s1)
    10d8:	0c001ca5 	jal	7294 <OS_CPU_SR_Restore>
    10dc:	af917864 	sw	s1,30820(gp)
    10e0:	00008821 	move	s1,zero
    10e4:	08000415 	j	1054 <OSFlagDel+0x44>
    10e8:	a2400000 	sb	zero,0(s2)
    10ec:	24020001 	li	v0,1
    10f0:	1202000d 	beq	s0,v0,1128 <OSFlagDel+0x118>
    10f4:	00000000 	nop
    10f8:	8fa40010 	lw	a0,16(sp)
    10fc:	0c001ca5 	jal	7294 <OS_CPU_SR_Restore>
    1100:	00000000 	nop
    1104:	24020007 	li	v0,7
    1108:	08000415 	j	1054 <OSFlagDel+0x44>
    110c:	a2420000 	sb	v0,0(s2)
    1110:	8fa40010 	lw	a0,16(sp)
    1114:	0c001ca5 	jal	7294 <OS_CPU_SR_Restore>
    1118:	00000000 	nop
    111c:	24020049 	li	v0,73
    1120:	08000415 	j	1054 <OSFlagDel+0x44>
    1124:	a2420000 	sb	v0,0(s2)
    1128:	10800007 	beqz	a0,1148 <OSFlagDel+0x138>
    112c:	00808021 	move	s0,a0
    1130:	02002021 	move	a0,s0
    1134:	0c000136 	jal	4d8 <OS_FlagTaskRdy>
    1138:	00002821 	move	a1,zero
    113c:	8e100000 	lw	s0,0(s0)
    1140:	1600fffc 	bnez	s0,1134 <OSFlagDel+0x124>
    1144:	02002021 	move	a0,s0
    1148:	a2200000 	sb	zero,0(s1)
    114c:	8f837864 	lw	v1,30820(gp)
    1150:	3c020000 	lui	v0,0x0
    1154:	244277a4 	addiu	v0,v0,30628
    1158:	8fa40010 	lw	a0,16(sp)
    115c:	ae22000c 	sw	v0,12(s1)
    1160:	ae230004 	sw	v1,4(s1)
    1164:	a6200008 	sh	zero,8(s1)
    1168:	0c001ca5 	jal	7294 <OS_CPU_SR_Restore>
    116c:	af917864 	sw	s1,30820(gp)
    1170:	16600004 	bnez	s3,1184 <OSFlagDel+0x174>
    1174:	00000000 	nop
    1178:	a2400000 	sb	zero,0(s2)
    117c:	08000415 	j	1054 <OSFlagDel+0x44>
    1180:	00008821 	move	s1,zero
    1184:	0c001790 	jal	5e40 <OS_Sched>
    1188:	00008821 	move	s1,zero
    118c:	08000415 	j	1054 <OSFlagDel+0x44>
    1190:	a2400000 	sb	zero,0(s2)

00001194 <OSFlagNameGet>:
    1194:	93827850 	lbu	v0,30800(gp)
    1198:	27bdffd8 	addiu	sp,sp,-40
    119c:	afb20020 	sw	s2,32(sp)
    11a0:	afb1001c 	sw	s1,28(sp)
    11a4:	afb00018 	sw	s0,24(sp)
    11a8:	afbf0024 	sw	ra,36(sp)
    11ac:	00808021 	move	s0,a0
    11b0:	00a09021 	move	s2,a1
    11b4:	00c08821 	move	s1,a2
    11b8:	afa00010 	sw	zero,16(sp)
    11bc:	1040000a 	beqz	v0,11e8 <OSFlagNameGet+0x54>
    11c0:	8fbf0024 	lw	ra,36(sp)
    11c4:	24020011 	li	v0,17
    11c8:	00008021 	move	s0,zero
    11cc:	a0c20000 	sb	v0,0(a2)
    11d0:	8fb20020 	lw	s2,32(sp)
    11d4:	02001021 	move	v0,s0
    11d8:	8fb1001c 	lw	s1,28(sp)
    11dc:	8fb00018 	lw	s0,24(sp)
    11e0:	03e00008 	jr	ra
    11e4:	27bd0028 	addiu	sp,sp,40
    11e8:	0c001c9e 	jal	7278 <OS_CPU_SR_Save>
    11ec:	00000000 	nop
    11f0:	92030000 	lbu	v1,0(s0)
    11f4:	afa20010 	sw	v0,16(sp)
    11f8:	24020005 	li	v0,5
    11fc:	1062000d 	beq	v1,v0,1234 <OSFlagNameGet+0xa0>
    1200:	00000000 	nop
    1204:	8fa40010 	lw	a0,16(sp)
    1208:	0c001ca5 	jal	7294 <OS_CPU_SR_Restore>
    120c:	00008021 	move	s0,zero
    1210:	24020001 	li	v0,1
    1214:	a2220000 	sb	v0,0(s1)
    1218:	8fbf0024 	lw	ra,36(sp)
    121c:	02001021 	move	v0,s0
    1220:	8fb20020 	lw	s2,32(sp)
    1224:	8fb1001c 	lw	s1,28(sp)
    1228:	8fb00018 	lw	s0,24(sp)
    122c:	03e00008 	jr	ra
    1230:	27bd0028 	addiu	sp,sp,40
    1234:	8e04000c 	lw	a0,12(s0)
    1238:	0c001785 	jal	5e14 <OS_StrLen>
    123c:	ae440000 	sw	a0,0(s2)
    1240:	8fa40010 	lw	a0,16(sp)
    1244:	0c001ca5 	jal	7294 <OS_CPU_SR_Restore>
    1248:	00408021 	move	s0,v0
    124c:	a2200000 	sb	zero,0(s1)
    1250:	8fbf0024 	lw	ra,36(sp)
    1254:	02001021 	move	v0,s0
    1258:	8fb20020 	lw	s2,32(sp)
    125c:	8fb1001c 	lw	s1,28(sp)
    1260:	8fb00018 	lw	s0,24(sp)
    1264:	03e00008 	jr	ra
    1268:	27bd0028 	addiu	sp,sp,40

0000126c <OSMboxQuery>:
    126c:	27bdffd8 	addiu	sp,sp,-40
    1270:	afb10020 	sw	s1,32(sp)
    1274:	afb0001c 	sw	s0,28(sp)
    1278:	afbf0024 	sw	ra,36(sp)
    127c:	90830000 	lbu	v1,0(a0)
    1280:	24020001 	li	v0,1
    1284:	00808021 	move	s0,a0
    1288:	00a08821 	move	s1,a1
    128c:	afa00010 	sw	zero,16(sp)
    1290:	10620005 	beq	v1,v0,12a8 <OSMboxQuery+0x3c>
    1294:	8fbf0024 	lw	ra,36(sp)
    1298:	8fb10020 	lw	s1,32(sp)
    129c:	8fb0001c 	lw	s0,28(sp)
    12a0:	03e00008 	jr	ra
    12a4:	27bd0028 	addiu	sp,sp,40
    12a8:	0c001c9e 	jal	7278 <OS_CPU_SR_Save>
    12ac:	00000000 	nop
    12b0:	9203000a 	lbu	v1,10(s0)
    12b4:	2605000b 	addiu	a1,s0,11
    12b8:	afa20010 	sw	v0,16(sp)
    12bc:	26240004 	addiu	a0,s1,4
    12c0:	a223000c 	sb	v1,12(s1)
    12c4:	00001021 	move	v0,zero
    12c8:	24060008 	li	a2,8
    12cc:	90a30000 	lbu	v1,0(a1)
    12d0:	24420001 	addiu	v0,v0,1
    12d4:	304200ff 	andi	v0,v0,0xff
    12d8:	a0830000 	sb	v1,0(a0)
    12dc:	24a50001 	addiu	a1,a1,1
    12e0:	1446fffa 	bne	v0,a2,12cc <OSMboxQuery+0x60>
    12e4:	24840001 	addiu	a0,a0,1
    12e8:	8e020004 	lw	v0,4(s0)
    12ec:	8fa40010 	lw	a0,16(sp)
    12f0:	0c001ca5 	jal	7294 <OS_CPU_SR_Restore>
    12f4:	ae220000 	sw	v0,0(s1)
    12f8:	8fbf0024 	lw	ra,36(sp)
    12fc:	00001021 	move	v0,zero
    1300:	8fb10020 	lw	s1,32(sp)
    1304:	8fb0001c 	lw	s0,28(sp)
    1308:	03e00008 	jr	ra
    130c:	27bd0028 	addiu	sp,sp,40

00001310 <OSMboxAccept>:
    1310:	27bdffd8 	addiu	sp,sp,-40
    1314:	afb10020 	sw	s1,32(sp)
    1318:	afbf0024 	sw	ra,36(sp)
    131c:	afb0001c 	sw	s0,28(sp)
    1320:	90830000 	lbu	v1,0(a0)
    1324:	24020001 	li	v0,1
    1328:	00808821 	move	s1,a0
    132c:	afa00010 	sw	zero,16(sp)
    1330:	10620007 	beq	v1,v0,1350 <OSMboxAccept+0x40>
    1334:	8fbf0024 	lw	ra,36(sp)
    1338:	00008021 	move	s0,zero
    133c:	02001021 	move	v0,s0
    1340:	8fb10020 	lw	s1,32(sp)
    1344:	8fb0001c 	lw	s0,28(sp)
    1348:	03e00008 	jr	ra
    134c:	27bd0028 	addiu	sp,sp,40
    1350:	0c001c9e 	jal	7278 <OS_CPU_SR_Save>
    1354:	00000000 	nop
    1358:	afa20010 	sw	v0,16(sp)
    135c:	8fa40010 	lw	a0,16(sp)
    1360:	8e300004 	lw	s0,4(s1)
    1364:	0c001ca5 	jal	7294 <OS_CPU_SR_Restore>
    1368:	ae200004 	sw	zero,4(s1)
    136c:	8fbf0024 	lw	ra,36(sp)
    1370:	02001021 	move	v0,s0
    1374:	8fb10020 	lw	s1,32(sp)
    1378:	8fb0001c 	lw	s0,28(sp)
    137c:	03e00008 	jr	ra
    1380:	27bd0028 	addiu	sp,sp,40

00001384 <OSMboxPostOpt>:
    1384:	27bdffd8 	addiu	sp,sp,-40
    1388:	afb20020 	sw	s2,32(sp)
    138c:	afb1001c 	sw	s1,28(sp)
    1390:	afb00018 	sw	s0,24(sp)
    1394:	afbf0024 	sw	ra,36(sp)
    1398:	90830000 	lbu	v1,0(a0)
    139c:	24020001 	li	v0,1
    13a0:	00808021 	move	s0,a0
    13a4:	00a08821 	move	s1,a1
    13a8:	30d200ff 	andi	s2,a2,0xff
    13ac:	afa00010 	sw	zero,16(sp)
    13b0:	10620007 	beq	v1,v0,13d0 <OSMboxPostOpt+0x4c>
    13b4:	00000000 	nop
    13b8:	8fbf0024 	lw	ra,36(sp)
    13bc:	8fb20020 	lw	s2,32(sp)
    13c0:	8fb1001c 	lw	s1,28(sp)
    13c4:	8fb00018 	lw	s0,24(sp)
    13c8:	03e00008 	jr	ra
    13cc:	27bd0028 	addiu	sp,sp,40
    13d0:	0c001c9e 	jal	7278 <OS_CPU_SR_Save>
    13d4:	00000000 	nop
    13d8:	9203000a 	lbu	v1,10(s0)
    13dc:	afa20010 	sw	v0,16(sp)
    13e0:	10600012 	beqz	v1,142c <OSMboxPostOpt+0xa8>
    13e4:	32420001 	andi	v0,s2,0x1
    13e8:	1040001c 	beqz	v0,145c <OSMboxPostOpt+0xd8>
    13ec:	02002021 	move	a0,s0
    13f0:	02202821 	move	a1,s1
    13f4:	24060002 	li	a2,2
    13f8:	0c0016ae 	jal	5ab8 <OS_EventTaskRdy>
    13fc:	00003821 	move	a3,zero
    1400:	9203000a 	lbu	v1,10(s0)
    1404:	1460fffa 	bnez	v1,13f0 <OSMboxPostOpt+0x6c>
    1408:	02002021 	move	a0,s0
    140c:	8fa40010 	lw	a0,16(sp)
    1410:	0c001ca5 	jal	7294 <OS_CPU_SR_Restore>
    1414:	00000000 	nop
    1418:	32420004 	andi	v0,s2,0x4
    141c:	1040000b 	beqz	v0,144c <OSMboxPostOpt+0xc8>
    1420:	00000000 	nop
    1424:	080004ee 	j	13b8 <OSMboxPostOpt+0x34>
    1428:	00001021 	move	v0,zero
    142c:	8e020004 	lw	v0,4(s0)
    1430:	10400010 	beqz	v0,1474 <OSMboxPostOpt+0xf0>
    1434:	00000000 	nop
    1438:	8fa40010 	lw	a0,16(sp)
    143c:	0c001ca5 	jal	7294 <OS_CPU_SR_Restore>
    1440:	00000000 	nop
    1444:	080004ee 	j	13b8 <OSMboxPostOpt+0x34>
    1448:	24020014 	li	v0,20
    144c:	0c001790 	jal	5e40 <OS_Sched>
    1450:	00000000 	nop
    1454:	080004ee 	j	13b8 <OSMboxPostOpt+0x34>
    1458:	00001021 	move	v0,zero
    145c:	02202821 	move	a1,s1
    1460:	24060002 	li	a2,2
    1464:	0c0016ae 	jal	5ab8 <OS_EventTaskRdy>
    1468:	00003821 	move	a3,zero
    146c:	08000503 	j	140c <OSMboxPostOpt+0x88>
    1470:	00000000 	nop
    1474:	8fa40010 	lw	a0,16(sp)
    1478:	0c001ca5 	jal	7294 <OS_CPU_SR_Restore>
    147c:	ae110004 	sw	s1,4(s0)
    1480:	080004ee 	j	13b8 <OSMboxPostOpt+0x34>
    1484:	00001021 	move	v0,zero

00001488 <OSMboxPost>:
    1488:	27bdffd8 	addiu	sp,sp,-40
    148c:	afb10020 	sw	s1,32(sp)
    1490:	afb0001c 	sw	s0,28(sp)
    1494:	afbf0024 	sw	ra,36(sp)
    1498:	90830000 	lbu	v1,0(a0)
    149c:	24020001 	li	v0,1
    14a0:	00808021 	move	s0,a0
    14a4:	00a08821 	move	s1,a1
    14a8:	afa00010 	sw	zero,16(sp)
    14ac:	10620006 	beq	v1,v0,14c8 <OSMboxPost+0x40>
    14b0:	00000000 	nop
    14b4:	8fbf0024 	lw	ra,36(sp)
    14b8:	8fb10020 	lw	s1,32(sp)
    14bc:	8fb0001c 	lw	s0,28(sp)
    14c0:	03e00008 	jr	ra
    14c4:	27bd0028 	addiu	sp,sp,40
    14c8:	0c001c9e 	jal	7278 <OS_CPU_SR_Save>
    14cc:	00000000 	nop
    14d0:	9203000a 	lbu	v1,10(s0)
    14d4:	afa20010 	sw	v0,16(sp)
    14d8:	1460000d 	bnez	v1,1510 <OSMboxPost+0x88>
    14dc:	02202821 	move	a1,s1
    14e0:	8e020004 	lw	v0,4(s0)
    14e4:	10400015 	beqz	v0,153c <OSMboxPost+0xb4>
    14e8:	00000000 	nop
    14ec:	8fa40010 	lw	a0,16(sp)
    14f0:	0c001ca5 	jal	7294 <OS_CPU_SR_Restore>
    14f4:	00000000 	nop
    14f8:	8fbf0024 	lw	ra,36(sp)
    14fc:	24020014 	li	v0,20
    1500:	8fb10020 	lw	s1,32(sp)
    1504:	8fb0001c 	lw	s0,28(sp)
    1508:	03e00008 	jr	ra
    150c:	27bd0028 	addiu	sp,sp,40
    1510:	24060002 	li	a2,2
    1514:	00003821 	move	a3,zero
    1518:	0c0016ae 	jal	5ab8 <OS_EventTaskRdy>
    151c:	02002021 	move	a0,s0
    1520:	8fa40010 	lw	a0,16(sp)
    1524:	0c001ca5 	jal	7294 <OS_CPU_SR_Restore>
    1528:	00000000 	nop
    152c:	0c001790 	jal	5e40 <OS_Sched>
    1530:	00000000 	nop
    1534:	0800052d 	j	14b4 <OSMboxPost+0x2c>
    1538:	00001021 	move	v0,zero
    153c:	8fa40010 	lw	a0,16(sp)
    1540:	0c001ca5 	jal	7294 <OS_CPU_SR_Restore>
    1544:	ae110004 	sw	s1,4(s0)
    1548:	0800052d 	j	14b4 <OSMboxPost+0x2c>
    154c:	00001021 	move	v0,zero

00001550 <OSMboxPendAbort>:
    1550:	27bdffd0 	addiu	sp,sp,-48
    1554:	afb30028 	sw	s3,40(sp)
    1558:	afb20024 	sw	s2,36(sp)
    155c:	afb10020 	sw	s1,32(sp)
    1560:	afbf002c 	sw	ra,44(sp)
    1564:	afb0001c 	sw	s0,28(sp)
    1568:	90900000 	lbu	s0,0(a0)
    156c:	24020001 	li	v0,1
    1570:	00808821 	move	s1,a0
    1574:	00c09821 	move	s3,a2
    1578:	30b200ff 	andi	s2,a1,0xff
    157c:	afa00010 	sw	zero,16(sp)
    1580:	1202000b 	beq	s0,v0,15b0 <OSMboxPendAbort+0x60>
    1584:	00000000 	nop
    1588:	a0c20000 	sb	v0,0(a2)
    158c:	00008021 	move	s0,zero
    1590:	8fbf002c 	lw	ra,44(sp)
    1594:	02001021 	move	v0,s0
    1598:	8fb30028 	lw	s3,40(sp)
    159c:	8fb20024 	lw	s2,36(sp)
    15a0:	8fb10020 	lw	s1,32(sp)
    15a4:	8fb0001c 	lw	s0,28(sp)
    15a8:	03e00008 	jr	ra
    15ac:	27bd0030 	addiu	sp,sp,48
    15b0:	0c001c9e 	jal	7278 <OS_CPU_SR_Save>
    15b4:	00000000 	nop
    15b8:	9223000a 	lbu	v1,10(s1)
    15bc:	afa20010 	sw	v0,16(sp)
    15c0:	10600023 	beqz	v1,1650 <OSMboxPendAbort+0x100>
    15c4:	00000000 	nop
    15c8:	12500015 	beq	s2,s0,1620 <OSMboxPendAbort+0xd0>
    15cc:	02202021 	move	a0,s1
    15d0:	00002821 	move	a1,zero
    15d4:	24060002 	li	a2,2
    15d8:	0c0016ae 	jal	5ab8 <OS_EventTaskRdy>
    15dc:	24070002 	li	a3,2
    15e0:	24100001 	li	s0,1
    15e4:	8fa40010 	lw	a0,16(sp)
    15e8:	0c001ca5 	jal	7294 <OS_CPU_SR_Restore>
    15ec:	00000000 	nop
    15f0:	0c001790 	jal	5e40 <OS_Sched>
    15f4:	00000000 	nop
    15f8:	2402000e 	li	v0,14
    15fc:	a2620000 	sb	v0,0(s3)
    1600:	8fbf002c 	lw	ra,44(sp)
    1604:	02001021 	move	v0,s0
    1608:	8fb30028 	lw	s3,40(sp)
    160c:	8fb20024 	lw	s2,36(sp)
    1610:	8fb10020 	lw	s1,32(sp)
    1614:	8fb0001c 	lw	s0,28(sp)
    1618:	03e00008 	jr	ra
    161c:	27bd0030 	addiu	sp,sp,48
    1620:	00008021 	move	s0,zero
    1624:	02202021 	move	a0,s1
    1628:	00002821 	move	a1,zero
    162c:	24060002 	li	a2,2
    1630:	0c0016ae 	jal	5ab8 <OS_EventTaskRdy>
    1634:	24070002 	li	a3,2
    1638:	9223000a 	lbu	v1,10(s1)
    163c:	26020001 	addiu	v0,s0,1
    1640:	1460fff8 	bnez	v1,1624 <OSMboxPendAbort+0xd4>
    1644:	305000ff 	andi	s0,v0,0xff
    1648:	08000579 	j	15e4 <OSMboxPendAbort+0x94>
    164c:	00000000 	nop
    1650:	8fa40010 	lw	a0,16(sp)
    1654:	0c001ca5 	jal	7294 <OS_CPU_SR_Restore>
    1658:	00008021 	move	s0,zero
    165c:	08000564 	j	1590 <OSMboxPendAbort+0x40>
    1660:	a2600000 	sb	zero,0(s3)

00001664 <OSMboxDel>:
    1664:	27bdffd0 	addiu	sp,sp,-48
    1668:	afb30024 	sw	s3,36(sp)
    166c:	afb20020 	sw	s2,32(sp)
    1670:	afb00018 	sw	s0,24(sp)
    1674:	afbf002c 	sw	ra,44(sp)
    1678:	afb40028 	sw	s4,40(sp)
    167c:	afb1001c 	sw	s1,28(sp)
    1680:	afa00010 	sw	zero,16(sp)
    1684:	90910000 	lbu	s1,0(a0)
    1688:	24020001 	li	v0,1
    168c:	00808021 	move	s0,a0
    1690:	00c09821 	move	s3,a2
    1694:	1222000b 	beq	s1,v0,16c4 <OSMboxDel+0x60>
    1698:	30b200ff 	andi	s2,a1,0xff
    169c:	a2620000 	sb	v0,0(s3)
    16a0:	8fbf002c 	lw	ra,44(sp)
    16a4:	02001021 	move	v0,s0
    16a8:	8fb40028 	lw	s4,40(sp)
    16ac:	8fb30024 	lw	s3,36(sp)
    16b0:	8fb20020 	lw	s2,32(sp)
    16b4:	8fb1001c 	lw	s1,28(sp)
    16b8:	8fb00018 	lw	s0,24(sp)
    16bc:	03e00008 	jr	ra
    16c0:	27bd0030 	addiu	sp,sp,48
    16c4:	93827850 	lbu	v0,30800(gp)
    16c8:	1040000b 	beqz	v0,16f8 <OSMboxDel+0x94>
    16cc:	2402000f 	li	v0,15
    16d0:	a0c20000 	sb	v0,0(a2)
    16d4:	8fbf002c 	lw	ra,44(sp)
    16d8:	02001021 	move	v0,s0
    16dc:	8fb40028 	lw	s4,40(sp)
    16e0:	8fb30024 	lw	s3,36(sp)
    16e4:	8fb20020 	lw	s2,32(sp)
    16e8:	8fb1001c 	lw	s1,28(sp)
    16ec:	8fb00018 	lw	s0,24(sp)
    16f0:	03e00008 	jr	ra
    16f4:	27bd0030 	addiu	sp,sp,48
    16f8:	0c001c9e 	jal	7278 <OS_CPU_SR_Save>
    16fc:	00000000 	nop
    1700:	afa20010 	sw	v0,16(sp)
    1704:	9202000a 	lbu	v0,10(s0)
    1708:	1640000f 	bnez	s2,1748 <OSMboxDel+0xe4>
    170c:	0002a02b 	sltu	s4,zero,v0
    1710:	16800014 	bnez	s4,1764 <OSMboxDel+0x100>
    1714:	3c020000 	lui	v0,0x0
    1718:	a2000000 	sb	zero,0(s0)
    171c:	8f83784c 	lw	v1,30796(gp)
    1720:	244277a4 	addiu	v0,v0,30628
    1724:	8fa40010 	lw	a0,16(sp)
    1728:	ae020014 	sw	v0,20(s0)
    172c:	ae030004 	sw	v1,4(s0)
    1730:	a6000008 	sh	zero,8(s0)
    1734:	0c001ca5 	jal	7294 <OS_CPU_SR_Restore>
    1738:	af90784c 	sw	s0,30796(gp)
    173c:	00008021 	move	s0,zero
    1740:	080005a8 	j	16a0 <OSMboxDel+0x3c>
    1744:	a2600000 	sb	zero,0(s3)
    1748:	1251000c 	beq	s2,s1,177c <OSMboxDel+0x118>
    174c:	00000000 	nop
    1750:	8fa40010 	lw	a0,16(sp)
    1754:	0c001ca5 	jal	7294 <OS_CPU_SR_Restore>
    1758:	00000000 	nop
    175c:	080005a7 	j	169c <OSMboxDel+0x38>
    1760:	24020007 	li	v0,7
    1764:	8fa40010 	lw	a0,16(sp)
    1768:	0c001ca5 	jal	7294 <OS_CPU_SR_Restore>
    176c:	00000000 	nop
    1770:	24020049 	li	v0,73
    1774:	080005a8 	j	16a0 <OSMboxDel+0x3c>
    1778:	a2620000 	sb	v0,0(s3)
    177c:	12800008 	beqz	s4,17a0 <OSMboxDel+0x13c>
    1780:	02002021 	move	a0,s0
    1784:	00002821 	move	a1,zero
    1788:	24060002 	li	a2,2
    178c:	0c0016ae 	jal	5ab8 <OS_EventTaskRdy>
    1790:	00003821 	move	a3,zero
    1794:	9203000a 	lbu	v1,10(s0)
    1798:	1460fffa 	bnez	v1,1784 <OSMboxDel+0x120>
    179c:	02002021 	move	a0,s0
    17a0:	a2000000 	sb	zero,0(s0)
    17a4:	8f83784c 	lw	v1,30796(gp)
    17a8:	3c020000 	lui	v0,0x0
    17ac:	244277a4 	addiu	v0,v0,30628
    17b0:	8fa40010 	lw	a0,16(sp)
    17b4:	ae020014 	sw	v0,20(s0)
    17b8:	ae030004 	sw	v1,4(s0)
    17bc:	a6000008 	sh	zero,8(s0)
    17c0:	0c001ca5 	jal	7294 <OS_CPU_SR_Restore>
    17c4:	af90784c 	sw	s0,30796(gp)
    17c8:	16800004 	bnez	s4,17dc <OSMboxDel+0x178>
    17cc:	00000000 	nop
    17d0:	a2600000 	sb	zero,0(s3)
    17d4:	080005a8 	j	16a0 <OSMboxDel+0x3c>
    17d8:	00008021 	move	s0,zero
    17dc:	0c001790 	jal	5e40 <OS_Sched>
    17e0:	00008021 	move	s0,zero
    17e4:	080005a8 	j	16a0 <OSMboxDel+0x3c>
    17e8:	a2600000 	sb	zero,0(s3)

000017ec <OSMboxPend>:
    17ec:	27bdffd0 	addiu	sp,sp,-48
    17f0:	afb30028 	sw	s3,40(sp)
    17f4:	afb20024 	sw	s2,36(sp)
    17f8:	afb10020 	sw	s1,32(sp)
    17fc:	afbf002c 	sw	ra,44(sp)
    1800:	afb0001c 	sw	s0,28(sp)
    1804:	90820000 	lbu	v0,0(a0)
    1808:	24030001 	li	v1,1
    180c:	00808821 	move	s1,a0
    1810:	00a09821 	move	s3,a1
    1814:	00c09021 	move	s2,a2
    1818:	afa00010 	sw	zero,16(sp)
    181c:	1443003c 	bne	v0,v1,1910 <OSMboxPend+0x124>
    1820:	93827850 	lbu	v0,30800(gp)
    1824:	14400049 	bnez	v0,194c <OSMboxPend+0x160>
    1828:	93827804 	lbu	v0,30724(gp)
    182c:	1440003b 	bnez	v0,191c <OSMboxPend+0x130>
    1830:	2402000d 	li	v0,13
    1834:	0c001c9e 	jal	7278 <OS_CPU_SR_Save>
    1838:	00000000 	nop
    183c:	8e300004 	lw	s0,4(s1)
    1840:	afa20010 	sw	v0,16(sp)
    1844:	1200000d 	beqz	s0,187c <OSMboxPend+0x90>
    1848:	8f837854 	lw	v1,30804(gp)
    184c:	8fa40010 	lw	a0,16(sp)
    1850:	0c001ca5 	jal	7294 <OS_CPU_SR_Restore>
    1854:	ae200004 	sw	zero,4(s1)
    1858:	a2400000 	sb	zero,0(s2)
    185c:	8fbf002c 	lw	ra,44(sp)
    1860:	02001021 	move	v0,s0
    1864:	8fb30028 	lw	s3,40(sp)
    1868:	8fb20024 	lw	s2,36(sp)
    186c:	8fb10020 	lw	s1,32(sp)
    1870:	8fb0001c 	lw	s0,28(sp)
    1874:	03e00008 	jr	ra
    1878:	27bd0030 	addiu	sp,sp,48
    187c:	02202021 	move	a0,s1
    1880:	90620034 	lbu	v0,52(v1)
    1884:	ac730030 	sw	s3,48(v1)
    1888:	34420002 	ori	v0,v0,0x2
    188c:	a0620034 	sb	v0,52(v1)
    1890:	0c0016fd 	jal	5bf4 <OS_EventTaskWait>
    1894:	a0600035 	sb	zero,53(v1)
    1898:	8fa40010 	lw	a0,16(sp)
    189c:	0c001ca5 	jal	7294 <OS_CPU_SR_Restore>
    18a0:	00000000 	nop
    18a4:	0c001790 	jal	5e40 <OS_Sched>
    18a8:	00000000 	nop
    18ac:	0c001c9e 	jal	7278 <OS_CPU_SR_Save>
    18b0:	00000000 	nop
    18b4:	8f847854 	lw	a0,30804(gp)
    18b8:	afa20010 	sw	v0,16(sp)
    18bc:	90830035 	lbu	v1,53(a0)
    18c0:	14600019 	bnez	v1,1928 <OSMboxPend+0x13c>
    18c4:	24020002 	li	v0,2
    18c8:	8c900024 	lw	s0,36(a0)
    18cc:	a2400000 	sb	zero,0(s2)
    18d0:	8f827854 	lw	v0,30804(gp)
    18d4:	a0400034 	sb	zero,52(v0)
    18d8:	a0400035 	sb	zero,53(v0)
    18dc:	8fa40010 	lw	a0,16(sp)
    18e0:	ac400024 	sw	zero,36(v0)
    18e4:	ac40001c 	sw	zero,28(v0)
    18e8:	0c001ca5 	jal	7294 <OS_CPU_SR_Restore>
    18ec:	ac400020 	sw	zero,32(v0)
    18f0:	8fbf002c 	lw	ra,44(sp)
    18f4:	02001021 	move	v0,s0
    18f8:	8fb30028 	lw	s3,40(sp)
    18fc:	8fb20024 	lw	s2,36(sp)
    1900:	8fb10020 	lw	s1,32(sp)
    1904:	8fb0001c 	lw	s0,28(sp)
    1908:	03e00008 	jr	ra
    190c:	27bd0030 	addiu	sp,sp,48
    1910:	a0c30000 	sb	v1,0(a2)
    1914:	08000617 	j	185c <OSMboxPend+0x70>
    1918:	00008021 	move	s0,zero
    191c:	a0c20000 	sb	v0,0(a2)
    1920:	08000617 	j	185c <OSMboxPend+0x70>
    1924:	00008021 	move	s0,zero
    1928:	10620006 	beq	v1,v0,1944 <OSMboxPend+0x158>
    192c:	2402000e 	li	v0,14
    1930:	0c00173b 	jal	5cec <OS_EventTaskRemove>
    1934:	02202821 	move	a1,s1
    1938:	2402000a 	li	v0,10
    193c:	08000634 	j	18d0 <OSMboxPend+0xe4>
    1940:	a2420000 	sb	v0,0(s2)
    1944:	08000634 	j	18d0 <OSMboxPend+0xe4>
    1948:	a2420000 	sb	v0,0(s2)
    194c:	24020002 	li	v0,2
    1950:	a0c20000 	sb	v0,0(a2)
    1954:	08000617 	j	185c <OSMboxPend+0x70>
    1958:	00008021 	move	s0,zero

0000195c <OSMboxCreate>:
    195c:	93827850 	lbu	v0,30800(gp)
    1960:	27bdffd8 	addiu	sp,sp,-40
    1964:	afb10020 	sw	s1,32(sp)
    1968:	afbf0024 	sw	ra,36(sp)
    196c:	afb0001c 	sw	s0,28(sp)
    1970:	00808821 	move	s1,a0
    1974:	afa00010 	sw	zero,16(sp)
    1978:	10400007 	beqz	v0,1998 <OSMboxCreate+0x3c>
    197c:	00008021 	move	s0,zero
    1980:	8fbf0024 	lw	ra,36(sp)
    1984:	02001021 	move	v0,s0
    1988:	8fb10020 	lw	s1,32(sp)
    198c:	8fb0001c 	lw	s0,28(sp)
    1990:	03e00008 	jr	ra
    1994:	27bd0028 	addiu	sp,sp,40
    1998:	0c001c9e 	jal	7278 <OS_CPU_SR_Save>
    199c:	00000000 	nop
    19a0:	8f90784c 	lw	s0,30796(gp)
    19a4:	afa20010 	sw	v0,16(sp)
    19a8:	12000014 	beqz	s0,19fc <OSMboxCreate+0xa0>
    19ac:	00000000 	nop
    19b0:	8e020004 	lw	v0,4(s0)
    19b4:	8fa40010 	lw	a0,16(sp)
    19b8:	0c001ca5 	jal	7294 <OS_CPU_SR_Restore>
    19bc:	af82784c 	sw	v0,30796(gp)
    19c0:	24020001 	li	v0,1
    19c4:	a2020000 	sb	v0,0(s0)
    19c8:	3c020000 	lui	v0,0x0
    19cc:	244277a4 	addiu	v0,v0,30628
    19d0:	ae110004 	sw	s1,4(s0)
    19d4:	ae020014 	sw	v0,20(s0)
    19d8:	a6000008 	sh	zero,8(s0)
    19dc:	0c001761 	jal	5d84 <OS_EventWaitListInit>
    19e0:	02002021 	move	a0,s0
    19e4:	8fbf0024 	lw	ra,36(sp)
    19e8:	02001021 	move	v0,s0
    19ec:	8fb10020 	lw	s1,32(sp)
    19f0:	8fb0001c 	lw	s0,28(sp)
    19f4:	03e00008 	jr	ra
    19f8:	27bd0028 	addiu	sp,sp,40
    19fc:	8fa40010 	lw	a0,16(sp)
    1a00:	0c001ca5 	jal	7294 <OS_CPU_SR_Restore>
    1a04:	00000000 	nop
    1a08:	08000661 	j	1984 <OSMboxCreate+0x28>
    1a0c:	8fbf0024 	lw	ra,36(sp)

00001a10 <OS_MemInit>:
    1a10:	27bdffe8 	addiu	sp,sp,-24
    1a14:	afb00010 	sw	s0,16(sp)
    1a18:	3c100001 	lui	s0,0x1
    1a1c:	2604885c 	addiu	a0,s0,-30628
    1a20:	afbf0014 	sw	ra,20(sp)
    1a24:	0c00176a 	jal	5da8 <OS_MemClr>
    1a28:	24050078 	li	a1,120
    1a2c:	3c020000 	lui	v0,0x0
    1a30:	244477a4 	addiu	a0,v0,30628
    1a34:	3c030001 	lui	v1,0x1
    1a38:	3c020001 	lui	v0,0x1
    1a3c:	24638874 	addiu	v1,v1,-30604
    1a40:	244288d4 	addiu	v0,v0,-30508
    1a44:	00802821 	move	a1,a0
    1a48:	ac63ffec 	sw	v1,-20(v1)
    1a4c:	ac64fffc 	sw	a0,-4(v1)
    1a50:	24630018 	addiu	v1,v1,24
    1a54:	1443fffc 	bne	v0,v1,1a48 <OS_MemInit+0x38>
    1a58:	8fbf0014 	lw	ra,20(sp)
    1a5c:	2602885c 	addiu	v0,s0,-30628
    1a60:	ac450074 	sw	a1,116(v0)
    1a64:	8fb00010 	lw	s0,16(sp)
    1a68:	af827834 	sw	v0,30772(gp)
    1a6c:	ac400064 	sw	zero,100(v0)
    1a70:	03e00008 	jr	ra
    1a74:	27bd0018 	addiu	sp,sp,24

00001a78 <OSMemQuery>:
    1a78:	27bdffd8 	addiu	sp,sp,-40
    1a7c:	afb10020 	sw	s1,32(sp)
    1a80:	00808821 	move	s1,a0
    1a84:	afbf0024 	sw	ra,36(sp)
    1a88:	afb0001c 	sw	s0,28(sp)
    1a8c:	afa00010 	sw	zero,16(sp)
    1a90:	0c001c9e 	jal	7278 <OS_CPU_SR_Save>
    1a94:	00a08021 	move	s0,a1
    1a98:	8e230008 	lw	v1,8(s1)
    1a9c:	8e250000 	lw	a1,0(s1)
    1aa0:	ae030008 	sw	v1,8(s0)
    1aa4:	8e24000c 	lw	a0,12(s1)
    1aa8:	ae050000 	sw	a1,0(s0)
    1aac:	afa20010 	sw	v0,16(sp)
    1ab0:	ae04000c 	sw	a0,12(s0)
    1ab4:	8e230010 	lw	v1,16(s1)
    1ab8:	8e220004 	lw	v0,4(s1)
    1abc:	8fa40010 	lw	a0,16(sp)
    1ac0:	ae020004 	sw	v0,4(s0)
    1ac4:	0c001ca5 	jal	7294 <OS_CPU_SR_Restore>
    1ac8:	ae030010 	sw	v1,16(s0)
    1acc:	8e03000c 	lw	v1,12(s0)
    1ad0:	8e040010 	lw	a0,16(s0)
    1ad4:	8fbf0024 	lw	ra,36(sp)
    1ad8:	00641823 	subu	v1,v1,a0
    1adc:	00001021 	move	v0,zero
    1ae0:	ae030014 	sw	v1,20(s0)
    1ae4:	8fb10020 	lw	s1,32(sp)
    1ae8:	8fb0001c 	lw	s0,28(sp)
    1aec:	03e00008 	jr	ra
    1af0:	27bd0028 	addiu	sp,sp,40

00001af4 <OSMemPut>:
    1af4:	27bdffd8 	addiu	sp,sp,-40
    1af8:	afb0001c 	sw	s0,28(sp)
    1afc:	00808021 	move	s0,a0
    1b00:	afb10020 	sw	s1,32(sp)
    1b04:	afbf0024 	sw	ra,36(sp)
    1b08:	00a08821 	move	s1,a1
    1b0c:	afa00010 	sw	zero,16(sp)
    1b10:	0c001c9e 	jal	7278 <OS_CPU_SR_Save>
    1b14:	00000000 	nop
    1b18:	8e050010 	lw	a1,16(s0)
    1b1c:	8e03000c 	lw	v1,12(s0)
    1b20:	afa20010 	sw	v0,16(sp)
    1b24:	00a3182b 	sltu	v1,a1,v1
    1b28:	1460000a 	bnez	v1,1b54 <OSMemPut+0x60>
    1b2c:	00000000 	nop
    1b30:	8fa40010 	lw	a0,16(sp)
    1b34:	0c001ca5 	jal	7294 <OS_CPU_SR_Restore>
    1b38:	00000000 	nop
    1b3c:	8fbf0024 	lw	ra,36(sp)
    1b40:	2402005e 	li	v0,94
    1b44:	8fb10020 	lw	s1,32(sp)
    1b48:	8fb0001c 	lw	s0,28(sp)
    1b4c:	03e00008 	jr	ra
    1b50:	27bd0028 	addiu	sp,sp,40
    1b54:	8e020004 	lw	v0,4(s0)
    1b58:	8fa40010 	lw	a0,16(sp)
    1b5c:	24a30001 	addiu	v1,a1,1
    1b60:	ae220000 	sw	v0,0(s1)
    1b64:	ae030010 	sw	v1,16(s0)
    1b68:	0c001ca5 	jal	7294 <OS_CPU_SR_Restore>
    1b6c:	ae110004 	sw	s1,4(s0)
    1b70:	8fbf0024 	lw	ra,36(sp)
    1b74:	00001021 	move	v0,zero
    1b78:	8fb10020 	lw	s1,32(sp)
    1b7c:	8fb0001c 	lw	s0,28(sp)
    1b80:	03e00008 	jr	ra
    1b84:	27bd0028 	addiu	sp,sp,40

00001b88 <OSMemNameSet>:
    1b88:	93827850 	lbu	v0,30800(gp)
    1b8c:	27bdffd8 	addiu	sp,sp,-40
    1b90:	afb20020 	sw	s2,32(sp)
    1b94:	afb1001c 	sw	s1,28(sp)
    1b98:	afb00018 	sw	s0,24(sp)
    1b9c:	afbf0024 	sw	ra,36(sp)
    1ba0:	00809021 	move	s2,a0
    1ba4:	00a08821 	move	s1,a1
    1ba8:	00c08021 	move	s0,a2
    1bac:	afa00010 	sw	zero,16(sp)
    1bb0:	10400008 	beqz	v0,1bd4 <OSMemNameSet+0x4c>
    1bb4:	8fbf0024 	lw	ra,36(sp)
    1bb8:	24020012 	li	v0,18
    1bbc:	8fb20020 	lw	s2,32(sp)
    1bc0:	8fb1001c 	lw	s1,28(sp)
    1bc4:	8fb00018 	lw	s0,24(sp)
    1bc8:	a0c20000 	sb	v0,0(a2)
    1bcc:	03e00008 	jr	ra
    1bd0:	27bd0028 	addiu	sp,sp,40
    1bd4:	0c001c9e 	jal	7278 <OS_CPU_SR_Save>
    1bd8:	00000000 	nop
    1bdc:	afa20010 	sw	v0,16(sp)
    1be0:	8fa40010 	lw	a0,16(sp)
    1be4:	0c001ca5 	jal	7294 <OS_CPU_SR_Restore>
    1be8:	ae510014 	sw	s1,20(s2)
    1bec:	a2000000 	sb	zero,0(s0)
    1bf0:	8fbf0024 	lw	ra,36(sp)
    1bf4:	8fb20020 	lw	s2,32(sp)
    1bf8:	8fb1001c 	lw	s1,28(sp)
    1bfc:	8fb00018 	lw	s0,24(sp)
    1c00:	03e00008 	jr	ra
    1c04:	27bd0028 	addiu	sp,sp,40

00001c08 <OSMemGet>:
    1c08:	27bdffd8 	addiu	sp,sp,-40
    1c0c:	afb1001c 	sw	s1,28(sp)
    1c10:	00808821 	move	s1,a0
    1c14:	afb20020 	sw	s2,32(sp)
    1c18:	afbf0024 	sw	ra,36(sp)
    1c1c:	00a09021 	move	s2,a1
    1c20:	afb00018 	sw	s0,24(sp)
    1c24:	afa00010 	sw	zero,16(sp)
    1c28:	0c001c9e 	jal	7278 <OS_CPU_SR_Save>
    1c2c:	00000000 	nop
    1c30:	8e250010 	lw	a1,16(s1)
    1c34:	afa20010 	sw	v0,16(sp)
    1c38:	10a00010 	beqz	a1,1c7c <OSMemGet+0x74>
    1c3c:	00000000 	nop
    1c40:	8e300004 	lw	s0,4(s1)
    1c44:	8fa40010 	lw	a0,16(sp)
    1c48:	8e030000 	lw	v1,0(s0)
    1c4c:	24a2ffff 	addiu	v0,a1,-1
    1c50:	ae220010 	sw	v0,16(s1)
    1c54:	0c001ca5 	jal	7294 <OS_CPU_SR_Restore>
    1c58:	ae230004 	sw	v1,4(s1)
    1c5c:	a2400000 	sb	zero,0(s2)
    1c60:	8fbf0024 	lw	ra,36(sp)
    1c64:	02001021 	move	v0,s0
    1c68:	8fb20020 	lw	s2,32(sp)
    1c6c:	8fb1001c 	lw	s1,28(sp)
    1c70:	8fb00018 	lw	s0,24(sp)
    1c74:	03e00008 	jr	ra
    1c78:	27bd0028 	addiu	sp,sp,40
    1c7c:	8fa40010 	lw	a0,16(sp)
    1c80:	0c001ca5 	jal	7294 <OS_CPU_SR_Restore>
    1c84:	00008021 	move	s0,zero
    1c88:	2402005d 	li	v0,93
    1c8c:	08000718 	j	1c60 <OSMemGet+0x58>
    1c90:	a2420000 	sb	v0,0(s2)

00001c94 <OSMemCreate>:
    1c94:	27bdffd0 	addiu	sp,sp,-48
    1c98:	afb40028 	sw	s4,40(sp)
    1c9c:	afb30024 	sw	s3,36(sp)
    1ca0:	afb20020 	sw	s2,32(sp)
    1ca4:	afb1001c 	sw	s1,28(sp)
    1ca8:	afb00018 	sw	s0,24(sp)
    1cac:	afbf002c 	sw	ra,44(sp)
    1cb0:	00809021 	move	s2,a0
    1cb4:	00a09821 	move	s3,a1
    1cb8:	00c08821 	move	s1,a2
    1cbc:	00e0a021 	move	s4,a3
    1cc0:	afa00010 	sw	zero,16(sp)
    1cc4:	0c001c9e 	jal	7278 <OS_CPU_SR_Save>
    1cc8:	00000000 	nop
    1ccc:	8f907834 	lw	s0,30772(gp)
    1cd0:	afa20010 	sw	v0,16(sp)
    1cd4:	12000022 	beqz	s0,1d60 <OSMemCreate+0xcc>
    1cd8:	00000000 	nop
    1cdc:	8e020004 	lw	v0,4(s0)
    1ce0:	8fa40010 	lw	a0,16(sp)
    1ce4:	0c001ca5 	jal	7294 <OS_CPU_SR_Restore>
    1ce8:	af827834 	sw	v0,30772(gp)
    1cec:	2666ffff 	addiu	a2,s3,-1
    1cf0:	10c0000b 	beqz	a2,1d20 <OSMemCreate+0x8c>
    1cf4:	02402821 	move	a1,s2
    1cf8:	02511821 	addu	v1,s2,s1
    1cfc:	00002021 	move	a0,zero
    1d00:	24840001 	addiu	a0,a0,1
    1d04:	0086102b 	sltu	v0,a0,a2
    1d08:	aca30000 	sw	v1,0(a1)
    1d0c:	00602821 	move	a1,v1
    1d10:	1440fffb 	bnez	v0,1d00 <OSMemCreate+0x6c>
    1d14:	00711821 	addu	v1,v1,s1
    1d18:	72261002 	mul	v0,s1,a2
    1d1c:	00522821 	addu	a1,v0,s2
    1d20:	aca00000 	sw	zero,0(a1)
    1d24:	ae13000c 	sw	s3,12(s0)
    1d28:	ae120004 	sw	s2,4(s0)
    1d2c:	ae110008 	sw	s1,8(s0)
    1d30:	ae120000 	sw	s2,0(s0)
    1d34:	ae130010 	sw	s3,16(s0)
    1d38:	a2800000 	sb	zero,0(s4)
    1d3c:	8fbf002c 	lw	ra,44(sp)
    1d40:	02001021 	move	v0,s0
    1d44:	8fb40028 	lw	s4,40(sp)
    1d48:	8fb30024 	lw	s3,36(sp)
    1d4c:	8fb20020 	lw	s2,32(sp)
    1d50:	8fb1001c 	lw	s1,28(sp)
    1d54:	8fb00018 	lw	s0,24(sp)
    1d58:	03e00008 	jr	ra
    1d5c:	27bd0030 	addiu	sp,sp,48
    1d60:	8fa40010 	lw	a0,16(sp)
    1d64:	0c001ca5 	jal	7294 <OS_CPU_SR_Restore>
    1d68:	00000000 	nop
    1d6c:	2402005a 	li	v0,90
    1d70:	a2820000 	sb	v0,0(s4)
    1d74:	8fbf002c 	lw	ra,44(sp)
    1d78:	02001021 	move	v0,s0
    1d7c:	8fb40028 	lw	s4,40(sp)
    1d80:	8fb30024 	lw	s3,36(sp)
    1d84:	8fb20020 	lw	s2,32(sp)
    1d88:	8fb1001c 	lw	s1,28(sp)
    1d8c:	8fb00018 	lw	s0,24(sp)
    1d90:	03e00008 	jr	ra
    1d94:	27bd0030 	addiu	sp,sp,48

00001d98 <OSMemNameGet>:
    1d98:	93827850 	lbu	v0,30800(gp)
    1d9c:	27bdffd8 	addiu	sp,sp,-40
    1da0:	afb20020 	sw	s2,32(sp)
    1da4:	afb1001c 	sw	s1,28(sp)
    1da8:	afb00018 	sw	s0,24(sp)
    1dac:	afbf0024 	sw	ra,36(sp)
    1db0:	00808021 	move	s0,a0
    1db4:	00a08821 	move	s1,a1
    1db8:	00c09021 	move	s2,a2
    1dbc:	afa00010 	sw	zero,16(sp)
    1dc0:	1040000a 	beqz	v0,1dec <OSMemNameGet+0x54>
    1dc4:	8fbf0024 	lw	ra,36(sp)
    1dc8:	24020011 	li	v0,17
    1dcc:	00008021 	move	s0,zero
    1dd0:	a0c20000 	sb	v0,0(a2)
    1dd4:	8fb20020 	lw	s2,32(sp)
    1dd8:	02001021 	move	v0,s0
    1ddc:	8fb1001c 	lw	s1,28(sp)
    1de0:	8fb00018 	lw	s0,24(sp)
    1de4:	03e00008 	jr	ra
    1de8:	27bd0028 	addiu	sp,sp,40
    1dec:	0c001c9e 	jal	7278 <OS_CPU_SR_Save>
    1df0:	00000000 	nop
    1df4:	8e040014 	lw	a0,20(s0)
    1df8:	afa20010 	sw	v0,16(sp)
    1dfc:	0c001785 	jal	5e14 <OS_StrLen>
    1e00:	ae240000 	sw	a0,0(s1)
    1e04:	8fa40010 	lw	a0,16(sp)
    1e08:	0c001ca5 	jal	7294 <OS_CPU_SR_Restore>
    1e0c:	00408021 	move	s0,v0
    1e10:	a2400000 	sb	zero,0(s2)
    1e14:	8fbf0024 	lw	ra,36(sp)
    1e18:	02001021 	move	v0,s0
    1e1c:	8fb20020 	lw	s2,32(sp)
    1e20:	8fb1001c 	lw	s1,28(sp)
    1e24:	8fb00018 	lw	s0,24(sp)
    1e28:	03e00008 	jr	ra
    1e2c:	27bd0028 	addiu	sp,sp,40

00001e30 <OSMutexQuery>:
    1e30:	93827850 	lbu	v0,30800(gp)
    1e34:	27bdffd8 	addiu	sp,sp,-40
    1e38:	afb10020 	sw	s1,32(sp)
    1e3c:	afb0001c 	sw	s0,28(sp)
    1e40:	afbf0024 	sw	ra,36(sp)
    1e44:	00808021 	move	s0,a0
    1e48:	00a08821 	move	s1,a1
    1e4c:	afa00010 	sw	zero,16(sp)
    1e50:	14400009 	bnez	v0,1e78 <OSMutexQuery+0x48>
    1e54:	24020004 	li	v0,4
    1e58:	90830000 	lbu	v1,0(a0)
    1e5c:	1062000c 	beq	v1,v0,1e90 <OSMutexQuery+0x60>
    1e60:	8fbf0024 	lw	ra,36(sp)
    1e64:	24020001 	li	v0,1
    1e68:	8fb10020 	lw	s1,32(sp)
    1e6c:	8fb0001c 	lw	s0,28(sp)
    1e70:	03e00008 	jr	ra
    1e74:	27bd0028 	addiu	sp,sp,40
    1e78:	8fbf0024 	lw	ra,36(sp)
    1e7c:	24020006 	li	v0,6
    1e80:	8fb10020 	lw	s1,32(sp)
    1e84:	8fb0001c 	lw	s0,28(sp)
    1e88:	03e00008 	jr	ra
    1e8c:	27bd0028 	addiu	sp,sp,40
    1e90:	0c001c9e 	jal	7278 <OS_CPU_SR_Save>
    1e94:	00000000 	nop
    1e98:	96030008 	lhu	v1,8(s0)
    1e9c:	afa20010 	sw	v0,16(sp)
    1ea0:	306400ff 	andi	a0,v1,0xff
    1ea4:	240200ff 	li	v0,255
    1ea8:	00031a02 	srl	v1,v1,0x8
    1eac:	a223000b 	sb	v1,11(s1)
    1eb0:	10820018 	beq	a0,v0,1f14 <OSMutexQuery+0xe4>
    1eb4:	a224000a 	sb	a0,10(s1)
    1eb8:	a2200009 	sb	zero,9(s1)
    1ebc:	9202000a 	lbu	v0,10(s0)
    1ec0:	2604000b 	addiu	a0,s0,11
    1ec4:	a2220008 	sb	v0,8(s1)
    1ec8:	02202821 	move	a1,s1
    1ecc:	00001021 	move	v0,zero
    1ed0:	24060008 	li	a2,8
    1ed4:	90830000 	lbu	v1,0(a0)
    1ed8:	24420001 	addiu	v0,v0,1
    1edc:	304200ff 	andi	v0,v0,0xff
    1ee0:	a0a30000 	sb	v1,0(a1)
    1ee4:	24840001 	addiu	a0,a0,1
    1ee8:	1446fffa 	bne	v0,a2,1ed4 <OSMutexQuery+0xa4>
    1eec:	24a50001 	addiu	a1,a1,1
    1ef0:	8fa40010 	lw	a0,16(sp)
    1ef4:	0c001ca5 	jal	7294 <OS_CPU_SR_Restore>
    1ef8:	00000000 	nop
    1efc:	8fbf0024 	lw	ra,36(sp)
    1f00:	00001021 	move	v0,zero
    1f04:	8fb10020 	lw	s1,32(sp)
    1f08:	8fb0001c 	lw	s0,28(sp)
    1f0c:	03e00008 	jr	ra
    1f10:	27bd0028 	addiu	sp,sp,40
    1f14:	24020001 	li	v0,1
    1f18:	080007af 	j	1ebc <OSMutexQuery+0x8c>
    1f1c:	a2220009 	sb	v0,9(s1)

00001f20 <OSMutexAccept>:
    1f20:	27bdffd8 	addiu	sp,sp,-40
    1f24:	afb10020 	sw	s1,32(sp)
    1f28:	afb0001c 	sw	s0,28(sp)
    1f2c:	afbf0024 	sw	ra,36(sp)
    1f30:	90830000 	lbu	v1,0(a0)
    1f34:	24020004 	li	v0,4
    1f38:	00808021 	move	s0,a0
    1f3c:	00a08821 	move	s1,a1
    1f40:	afa00010 	sw	zero,16(sp)
    1f44:	10620008 	beq	v1,v0,1f68 <OSMutexAccept+0x48>
    1f48:	24020001 	li	v0,1
    1f4c:	a0a20000 	sb	v0,0(a1)
    1f50:	00001021 	move	v0,zero
    1f54:	8fbf0024 	lw	ra,36(sp)
    1f58:	8fb10020 	lw	s1,32(sp)
    1f5c:	8fb0001c 	lw	s0,28(sp)
    1f60:	03e00008 	jr	ra
    1f64:	27bd0028 	addiu	sp,sp,40
    1f68:	93827850 	lbu	v0,30800(gp)
    1f6c:	10400008 	beqz	v0,1f90 <OSMutexAccept+0x70>
    1f70:	24020002 	li	v0,2
    1f74:	a0a20000 	sb	v0,0(a1)
    1f78:	8fbf0024 	lw	ra,36(sp)
    1f7c:	00001021 	move	v0,zero
    1f80:	8fb10020 	lw	s1,32(sp)
    1f84:	8fb0001c 	lw	s0,28(sp)
    1f88:	03e00008 	jr	ra
    1f8c:	27bd0028 	addiu	sp,sp,40
    1f90:	0c001c9e 	jal	7278 <OS_CPU_SR_Save>
    1f94:	00000000 	nop
    1f98:	96040008 	lhu	a0,8(s0)
    1f9c:	afa20010 	sw	v0,16(sp)
    1fa0:	308300ff 	andi	v1,a0,0xff
    1fa4:	240200ff 	li	v0,255
    1fa8:	14620010 	bne	v1,v0,1fec <OSMutexAccept+0xcc>
    1fac:	8f857854 	lw	a1,30804(gp)
    1fb0:	00041a02 	srl	v1,a0,0x8
    1fb4:	90a20036 	lbu	v0,54(a1)
    1fb8:	3084ff00 	andi	a0,a0,0xff00
    1fbc:	0062182b 	sltu	v1,v1,v0
    1fc0:	00441025 	or	v0,v0,a0
    1fc4:	ae050004 	sw	a1,4(s0)
    1fc8:	1460000e 	bnez	v1,2004 <OSMutexAccept+0xe4>
    1fcc:	a6020008 	sh	v0,8(s0)
    1fd0:	8fa40010 	lw	a0,16(sp)
    1fd4:	0c001ca5 	jal	7294 <OS_CPU_SR_Restore>
    1fd8:	00000000 	nop
    1fdc:	24020078 	li	v0,120
    1fe0:	a2220000 	sb	v0,0(s1)
    1fe4:	080007d5 	j	1f54 <OSMutexAccept+0x34>
    1fe8:	24020001 	li	v0,1
    1fec:	8fa40010 	lw	a0,16(sp)
    1ff0:	0c001ca5 	jal	7294 <OS_CPU_SR_Restore>
    1ff4:	00000000 	nop
    1ff8:	a2200000 	sb	zero,0(s1)
    1ffc:	080007d5 	j	1f54 <OSMutexAccept+0x34>
    2000:	00001021 	move	v0,zero
    2004:	8fa40010 	lw	a0,16(sp)
    2008:	0c001ca5 	jal	7294 <OS_CPU_SR_Restore>
    200c:	00000000 	nop
    2010:	a2200000 	sb	zero,0(s1)
    2014:	080007d5 	j	1f54 <OSMutexAccept+0x34>
    2018:	24020001 	li	v0,1

0000201c <OSMutexPost>:
    201c:	93827850 	lbu	v0,30800(gp)
    2020:	27bdffd8 	addiu	sp,sp,-40
    2024:	afb00018 	sw	s0,24(sp)
    2028:	afbf0024 	sw	ra,36(sp)
    202c:	afb20020 	sw	s2,32(sp)
    2030:	afb1001c 	sw	s1,28(sp)
    2034:	00808021 	move	s0,a0
    2038:	afa00010 	sw	zero,16(sp)
    203c:	1440000a 	bnez	v0,2068 <OSMutexPost+0x4c>
    2040:	24020004 	li	v0,4
    2044:	90830000 	lbu	v1,0(a0)
    2048:	1062000e 	beq	v1,v0,2084 <OSMutexPost+0x68>
    204c:	24020001 	li	v0,1
    2050:	8fbf0024 	lw	ra,36(sp)
    2054:	8fb20020 	lw	s2,32(sp)
    2058:	8fb1001c 	lw	s1,28(sp)
    205c:	8fb00018 	lw	s0,24(sp)
    2060:	03e00008 	jr	ra
    2064:	27bd0028 	addiu	sp,sp,40
    2068:	8fbf0024 	lw	ra,36(sp)
    206c:	24020005 	li	v0,5
    2070:	8fb20020 	lw	s2,32(sp)
    2074:	8fb1001c 	lw	s1,28(sp)
    2078:	8fb00018 	lw	s0,24(sp)
    207c:	03e00008 	jr	ra
    2080:	27bd0028 	addiu	sp,sp,40
    2084:	0c001c9e 	jal	7278 <OS_CPU_SR_Save>
    2088:	00000000 	nop
    208c:	afa20010 	sw	v0,16(sp)
    2090:	8e060004 	lw	a2,4(s0)
    2094:	8f827854 	lw	v0,30804(gp)
    2098:	10c20006 	beq	a2,v0,20b4 <OSMutexPost+0x98>
    209c:	96050008 	lhu	a1,8(s0)
    20a0:	8fa40010 	lw	a0,16(sp)
    20a4:	0c001ca5 	jal	7294 <OS_CPU_SR_Restore>
    20a8:	00000000 	nop
    20ac:	08000814 	j	2050 <OSMutexPost+0x34>
    20b0:	24020064 	li	v0,100
    20b4:	90c20036 	lbu	v0,54(a2)
    20b8:	00059202 	srl	s2,a1,0x8
    20bc:	10520026 	beq	v0,s2,2158 <OSMutexPost+0x13c>
    20c0:	3c070001 	lui	a3,0x1
    20c4:	24f197b4 	addiu	s1,a3,-26700
    20c8:	00121080 	sll	v0,s2,0x2
    20cc:	02221021 	addu	v0,s1,v0
    20d0:	24030001 	li	v1,1
    20d4:	ac430000 	sw	v1,0(v0)
    20d8:	9204000a 	lbu	a0,10(s0)
    20dc:	10800016 	beqz	a0,2138 <OSMutexPost+0x11c>
    20e0:	02002021 	move	a0,s0
    20e4:	00002821 	move	a1,zero
    20e8:	24060010 	li	a2,16
    20ec:	0c0016ae 	jal	5ab8 <OS_EventTaskRdy>
    20f0:	00003821 	move	a3,zero
    20f4:	00021880 	sll	v1,v0,0x2
    20f8:	96040008 	lhu	a0,8(s0)
    20fc:	00711821 	addu	v1,v1,s1
    2100:	3084ff00 	andi	a0,a0,0xff00
    2104:	8c650000 	lw	a1,0(v1)
    2108:	0242302b 	sltu	a2,s2,v0
    210c:	00441025 	or	v0,v0,a0
    2110:	ae050004 	sw	a1,4(s0)
    2114:	14c0003c 	bnez	a2,2208 <OSMutexPost+0x1ec>
    2118:	a6020008 	sh	v0,8(s0)
    211c:	8fa40010 	lw	a0,16(sp)
    2120:	0c001ca5 	jal	7294 <OS_CPU_SR_Restore>
    2124:	00000000 	nop
    2128:	0c001790 	jal	5e40 <OS_Sched>
    212c:	00000000 	nop
    2130:	08000814 	j	2050 <OSMutexPost+0x34>
    2134:	24020078 	li	v0,120
    2138:	96020008 	lhu	v0,8(s0)
    213c:	8fa40010 	lw	a0,16(sp)
    2140:	344200ff 	ori	v0,v0,0xff
    2144:	a6020008 	sh	v0,8(s0)
    2148:	0c001ca5 	jal	7294 <OS_CPU_SR_Restore>
    214c:	ae000004 	sw	zero,4(s0)
    2150:	08000814 	j	2050 <OSMutexPost+0x34>
    2154:	00001021 	move	v0,zero
    2158:	90c20038 	lbu	v0,56(a2)
    215c:	27887844 	addiu	t0,gp,30788
    2160:	01021021 	addu	v0,t0,v0
    2164:	90c30039 	lbu	v1,57(a2)
    2168:	90440000 	lbu	a0,0(v0)
    216c:	00031827 	nor	v1,zero,v1
    2170:	00641824 	and	v1,v1,a0
    2174:	14600006 	bnez	v1,2190 <OSMutexPost+0x174>
    2178:	a0430000 	sb	v1,0(v0)
    217c:	90c2003a 	lbu	v0,58(a2)
    2180:	93837840 	lbu	v1,30784(gp)
    2184:	00021027 	nor	v0,zero,v0
    2188:	00431024 	and	v0,v0,v1
    218c:	a3827840 	sb	v0,30784(gp)
    2190:	30a500ff 	andi	a1,a1,0xff
    2194:	30a30007 	andi	v1,a1,0x7
    2198:	000510c2 	srl	v0,a1,0x3
    219c:	a0c50036 	sb	a1,54(a2)
    21a0:	30420007 	andi	v0,v0,0x7
    21a4:	a3857817 	sb	a1,30743(gp)
    21a8:	306400ff 	andi	a0,v1,0xff
    21ac:	a0c30037 	sb	v1,55(a2)
    21b0:	24030001 	li	v1,1
    21b4:	a0c20038 	sb	v0,56(a2)
    21b8:	00832004 	sllv	a0,v1,a0
    21bc:	304200ff 	andi	v0,v0,0xff
    21c0:	00431804 	sllv	v1,v1,v0
    21c4:	308400ff 	andi	a0,a0,0xff
    21c8:	a0c3003a 	sb	v1,58(a2)
    21cc:	a0c40039 	sb	a0,57(a2)
    21d0:	93827840 	lbu	v0,30784(gp)
    21d4:	3c070001 	lui	a3,0x1
    21d8:	00431025 	or	v0,v0,v1
    21dc:	a3827840 	sb	v0,30784(gp)
    21e0:	90c30038 	lbu	v1,56(a2)
    21e4:	00052880 	sll	a1,a1,0x2
    21e8:	01031821 	addu	v1,t0,v1
    21ec:	90620000 	lbu	v0,0(v1)
    21f0:	24f197b4 	addiu	s1,a3,-26700
    21f4:	00822025 	or	a0,a0,v0
    21f8:	02252821 	addu	a1,s1,a1
    21fc:	a0640000 	sb	a0,0(v1)
    2200:	08000832 	j	20c8 <OSMutexPost+0xac>
    2204:	aca60000 	sw	a2,0(a1)
    2208:	8fa40010 	lw	a0,16(sp)
    220c:	0c001ca5 	jal	7294 <OS_CPU_SR_Restore>
    2210:	00000000 	nop
    2214:	0c001790 	jal	5e40 <OS_Sched>
    2218:	00000000 	nop
    221c:	08000814 	j	2050 <OSMutexPost+0x34>
    2220:	00001021 	move	v0,zero

00002224 <OSMutexDel>:
    2224:	27bdffd0 	addiu	sp,sp,-48
    2228:	afb20024 	sw	s2,36(sp)
    222c:	afb10020 	sw	s1,32(sp)
    2230:	afb0001c 	sw	s0,28(sp)
    2234:	afbf002c 	sw	ra,44(sp)
    2238:	afb30028 	sw	s3,40(sp)
    223c:	afa00010 	sw	zero,16(sp)
    2240:	90830000 	lbu	v1,0(a0)
    2244:	24020004 	li	v0,4
    2248:	00808021 	move	s0,a0
    224c:	00c09021 	move	s2,a2
    2250:	1062000b 	beq	v1,v0,2280 <OSMutexDel+0x5c>
    2254:	30b100ff 	andi	s1,a1,0xff
    2258:	24020001 	li	v0,1
    225c:	a0c20000 	sb	v0,0(a2)
    2260:	8fbf002c 	lw	ra,44(sp)
    2264:	02001021 	move	v0,s0
    2268:	8fb30028 	lw	s3,40(sp)
    226c:	8fb20024 	lw	s2,36(sp)
    2270:	8fb10020 	lw	s1,32(sp)
    2274:	8fb0001c 	lw	s0,28(sp)
    2278:	03e00008 	jr	ra
    227c:	27bd0030 	addiu	sp,sp,48
    2280:	93827850 	lbu	v0,30800(gp)
    2284:	1040000a 	beqz	v0,22b0 <OSMutexDel+0x8c>
    2288:	2402000f 	li	v0,15
    228c:	a0c20000 	sb	v0,0(a2)
    2290:	8fbf002c 	lw	ra,44(sp)
    2294:	02001021 	move	v0,s0
    2298:	8fb30028 	lw	s3,40(sp)
    229c:	8fb20024 	lw	s2,36(sp)
    22a0:	8fb10020 	lw	s1,32(sp)
    22a4:	8fb0001c 	lw	s0,28(sp)
    22a8:	03e00008 	jr	ra
    22ac:	27bd0030 	addiu	sp,sp,48
    22b0:	0c001c9e 	jal	7278 <OS_CPU_SR_Save>
    22b4:	00000000 	nop
    22b8:	afa20010 	sw	v0,16(sp)
    22bc:	9204000a 	lbu	a0,10(s0)
    22c0:	16200016 	bnez	s1,231c <OSMutexDel+0xf8>
    22c4:	0004982b 	sltu	s3,zero,a0
    22c8:	1660001d 	bnez	s3,2340 <OSMutexDel+0x11c>
    22cc:	3c030001 	lui	v1,0x1
    22d0:	96020008 	lhu	v0,8(s0)
    22d4:	00021202 	srl	v0,v0,0x8
    22d8:	246397b4 	addiu	v1,v1,-26700
    22dc:	00021080 	sll	v0,v0,0x2
    22e0:	00431021 	addu	v0,v0,v1
    22e4:	ac400000 	sw	zero,0(v0)
    22e8:	a2000000 	sb	zero,0(s0)
    22ec:	8f83784c 	lw	v1,30796(gp)
    22f0:	3c020000 	lui	v0,0x0
    22f4:	244277a4 	addiu	v0,v0,30628
    22f8:	8fa40010 	lw	a0,16(sp)
    22fc:	ae020014 	sw	v0,20(s0)
    2300:	ae030004 	sw	v1,4(s0)
    2304:	a6000008 	sh	zero,8(s0)
    2308:	0c001ca5 	jal	7294 <OS_CPU_SR_Restore>
    230c:	af90784c 	sw	s0,30796(gp)
    2310:	00008021 	move	s0,zero
    2314:	08000898 	j	2260 <OSMutexDel+0x3c>
    2318:	a2400000 	sb	zero,0(s2)
    231c:	24020001 	li	v0,1
    2320:	1222000d 	beq	s1,v0,2358 <OSMutexDel+0x134>
    2324:	00000000 	nop
    2328:	8fa40010 	lw	a0,16(sp)
    232c:	0c001ca5 	jal	7294 <OS_CPU_SR_Restore>
    2330:	00000000 	nop
    2334:	24020007 	li	v0,7
    2338:	08000898 	j	2260 <OSMutexDel+0x3c>
    233c:	a2420000 	sb	v0,0(s2)
    2340:	8fa40010 	lw	a0,16(sp)
    2344:	0c001ca5 	jal	7294 <OS_CPU_SR_Restore>
    2348:	00000000 	nop
    234c:	24020049 	li	v0,73
    2350:	08000898 	j	2260 <OSMutexDel+0x3c>
    2354:	a2420000 	sb	v0,0(s2)
    2358:	8e060004 	lw	a2,4(s0)
    235c:	10c00005 	beqz	a2,2374 <OSMutexDel+0x150>
    2360:	96050008 	lhu	a1,8(s0)
    2364:	90c30036 	lbu	v1,54(a2)
    2368:	00051202 	srl	v0,a1,0x8
    236c:	10620020 	beq	v1,v0,23f0 <OSMutexDel+0x1cc>
    2370:	27887844 	addiu	t0,gp,30788
    2374:	3c070001 	lui	a3,0x1
    2378:	24f197b4 	addiu	s1,a3,-26700
    237c:	10800008 	beqz	a0,23a0 <OSMutexDel+0x17c>
    2380:	02002021 	move	a0,s0
    2384:	00002821 	move	a1,zero
    2388:	24060010 	li	a2,16
    238c:	0c0016ae 	jal	5ab8 <OS_EventTaskRdy>
    2390:	00003821 	move	a3,zero
    2394:	9203000a 	lbu	v1,10(s0)
    2398:	1460fffa 	bnez	v1,2384 <OSMutexDel+0x160>
    239c:	02002021 	move	a0,s0
    23a0:	96020008 	lhu	v0,8(s0)
    23a4:	a6000008 	sh	zero,8(s0)
    23a8:	00021202 	srl	v0,v0,0x8
    23ac:	00021080 	sll	v0,v0,0x2
    23b0:	02221021 	addu	v0,s1,v0
    23b4:	ac400000 	sw	zero,0(v0)
    23b8:	a2000000 	sb	zero,0(s0)
    23bc:	8f83784c 	lw	v1,30796(gp)
    23c0:	3c020000 	lui	v0,0x0
    23c4:	244277a4 	addiu	v0,v0,30628
    23c8:	8fa40010 	lw	a0,16(sp)
    23cc:	ae020014 	sw	v0,20(s0)
    23d0:	ae030004 	sw	v1,4(s0)
    23d4:	0c001ca5 	jal	7294 <OS_CPU_SR_Restore>
    23d8:	af90784c 	sw	s0,30796(gp)
    23dc:	16600030 	bnez	s3,24a0 <OSMutexDel+0x27c>
    23e0:	00000000 	nop
    23e4:	a2400000 	sb	zero,0(s2)
    23e8:	08000898 	j	2260 <OSMutexDel+0x3c>
    23ec:	00008021 	move	s0,zero
    23f0:	90c20038 	lbu	v0,56(a2)
    23f4:	01021021 	addu	v0,t0,v0
    23f8:	90c30039 	lbu	v1,57(a2)
    23fc:	90440000 	lbu	a0,0(v0)
    2400:	00031827 	nor	v1,zero,v1
    2404:	00641824 	and	v1,v1,a0
    2408:	14600006 	bnez	v1,2424 <OSMutexDel+0x200>
    240c:	a0430000 	sb	v1,0(v0)
    2410:	90c2003a 	lbu	v0,58(a2)
    2414:	93837840 	lbu	v1,30784(gp)
    2418:	00021027 	nor	v0,zero,v0
    241c:	00431024 	and	v0,v0,v1
    2420:	a3827840 	sb	v0,30784(gp)
    2424:	30a500ff 	andi	a1,a1,0xff
    2428:	30a30007 	andi	v1,a1,0x7
    242c:	000510c2 	srl	v0,a1,0x3
    2430:	a0c50036 	sb	a1,54(a2)
    2434:	30420007 	andi	v0,v0,0x7
    2438:	a3857817 	sb	a1,30743(gp)
    243c:	306400ff 	andi	a0,v1,0xff
    2440:	a0c30037 	sb	v1,55(a2)
    2444:	24030001 	li	v1,1
    2448:	a0c20038 	sb	v0,56(a2)
    244c:	00832004 	sllv	a0,v1,a0
    2450:	304200ff 	andi	v0,v0,0xff
    2454:	00431804 	sllv	v1,v1,v0
    2458:	308400ff 	andi	a0,a0,0xff
    245c:	a0c3003a 	sb	v1,58(a2)
    2460:	a0c40039 	sb	a0,57(a2)
    2464:	93827840 	lbu	v0,30784(gp)
    2468:	3c070001 	lui	a3,0x1
    246c:	00431025 	or	v0,v0,v1
    2470:	a3827840 	sb	v0,30784(gp)
    2474:	90c30038 	lbu	v1,56(a2)
    2478:	00052880 	sll	a1,a1,0x2
    247c:	01031821 	addu	v1,t0,v1
    2480:	90620000 	lbu	v0,0(v1)
    2484:	24f197b4 	addiu	s1,a3,-26700
    2488:	00822025 	or	a0,a0,v0
    248c:	02252821 	addu	a1,s1,a1
    2490:	a0640000 	sb	a0,0(v1)
    2494:	aca60000 	sw	a2,0(a1)
    2498:	080008df 	j	237c <OSMutexDel+0x158>
    249c:	9204000a 	lbu	a0,10(s0)
    24a0:	0c001790 	jal	5e40 <OS_Sched>
    24a4:	00008021 	move	s0,zero
    24a8:	08000898 	j	2260 <OSMutexDel+0x3c>
    24ac:	a2400000 	sb	zero,0(s2)

000024b0 <OSMutexPend>:
    24b0:	27bdffd8 	addiu	sp,sp,-40
    24b4:	afb20020 	sw	s2,32(sp)
    24b8:	afb1001c 	sw	s1,28(sp)
    24bc:	afb00018 	sw	s0,24(sp)
    24c0:	afbf0024 	sw	ra,36(sp)
    24c4:	90830000 	lbu	v1,0(a0)
    24c8:	24020004 	li	v0,4
    24cc:	00808021 	move	s0,a0
    24d0:	00a09021 	move	s2,a1
    24d4:	00c08821 	move	s1,a2
    24d8:	afa00010 	sw	zero,16(sp)
    24dc:	10620008 	beq	v1,v0,2500 <OSMutexPend+0x50>
    24e0:	24020001 	li	v0,1
    24e4:	a0c20000 	sb	v0,0(a2)
    24e8:	8fbf0024 	lw	ra,36(sp)
    24ec:	8fb20020 	lw	s2,32(sp)
    24f0:	8fb1001c 	lw	s1,28(sp)
    24f4:	8fb00018 	lw	s0,24(sp)
    24f8:	03e00008 	jr	ra
    24fc:	27bd0028 	addiu	sp,sp,40
    2500:	93827850 	lbu	v0,30800(gp)
    2504:	1440000a 	bnez	v0,2530 <OSMutexPend+0x80>
    2508:	93827804 	lbu	v0,30724(gp)
    250c:	10400010 	beqz	v0,2550 <OSMutexPend+0xa0>
    2510:	2402000d 	li	v0,13
    2514:	a0c20000 	sb	v0,0(a2)
    2518:	8fbf0024 	lw	ra,36(sp)
    251c:	8fb20020 	lw	s2,32(sp)
    2520:	8fb1001c 	lw	s1,28(sp)
    2524:	8fb00018 	lw	s0,24(sp)
    2528:	03e00008 	jr	ra
    252c:	27bd0028 	addiu	sp,sp,40
    2530:	24020002 	li	v0,2
    2534:	a0c20000 	sb	v0,0(a2)
    2538:	8fbf0024 	lw	ra,36(sp)
    253c:	8fb20020 	lw	s2,32(sp)
    2540:	8fb1001c 	lw	s1,28(sp)
    2544:	8fb00018 	lw	s0,24(sp)
    2548:	03e00008 	jr	ra
    254c:	27bd0028 	addiu	sp,sp,40
    2550:	0c001c9e 	jal	7278 <OS_CPU_SR_Save>
    2554:	00000000 	nop
    2558:	96030008 	lhu	v1,8(s0)
    255c:	afa20010 	sw	v0,16(sp)
    2560:	306500ff 	andi	a1,v1,0xff
    2564:	240200ff 	li	v0,255
    2568:	10a20026 	beq	a1,v0,2604 <OSMutexPend+0x154>
    256c:	00033a02 	srl	a3,v1,0x8
    2570:	8e060004 	lw	a2,4(s0)
    2574:	90c20036 	lbu	v0,54(a2)
    2578:	00e2102b 	sltu	v0,a3,v0
    257c:	14400039 	bnez	v0,2664 <OSMutexPend+0x1b4>
    2580:	8f847854 	lw	a0,30804(gp)
    2584:	90820034 	lbu	v0,52(a0)
    2588:	ac920030 	sw	s2,48(a0)
    258c:	34420010 	ori	v0,v0,0x10
    2590:	a0820034 	sb	v0,52(a0)
    2594:	a0800035 	sb	zero,53(a0)
    2598:	0c0016fd 	jal	5bf4 <OS_EventTaskWait>
    259c:	02002021 	move	a0,s0
    25a0:	8fa40010 	lw	a0,16(sp)
    25a4:	0c001ca5 	jal	7294 <OS_CPU_SR_Restore>
    25a8:	00000000 	nop
    25ac:	0c001790 	jal	5e40 <OS_Sched>
    25b0:	00000000 	nop
    25b4:	0c001c9e 	jal	7278 <OS_CPU_SR_Save>
    25b8:	00000000 	nop
    25bc:	8f847854 	lw	a0,30804(gp)
    25c0:	afa20010 	sw	v0,16(sp)
    25c4:	90830035 	lbu	v1,53(a0)
    25c8:	1460001f 	bnez	v1,2648 <OSMutexPend+0x198>
    25cc:	24020002 	li	v0,2
    25d0:	a2200000 	sb	zero,0(s1)
    25d4:	8f827854 	lw	v0,30804(gp)
    25d8:	a0400034 	sb	zero,52(v0)
    25dc:	a0400035 	sb	zero,53(v0)
    25e0:	8fa40010 	lw	a0,16(sp)
    25e4:	8fbf0024 	lw	ra,36(sp)
    25e8:	8fb20020 	lw	s2,32(sp)
    25ec:	8fb1001c 	lw	s1,28(sp)
    25f0:	8fb00018 	lw	s0,24(sp)
    25f4:	ac400020 	sw	zero,32(v0)
    25f8:	ac40001c 	sw	zero,28(v0)
    25fc:	08001ca5 	j	7294 <OS_CPU_SR_Restore>
    2600:	27bd0028 	addiu	sp,sp,40
    2604:	8f847854 	lw	a0,30804(gp)
    2608:	3063ff00 	andi	v1,v1,0xff00
    260c:	a6030008 	sh	v1,8(s0)
    2610:	90820036 	lbu	v0,54(a0)
    2614:	ae040004 	sw	a0,4(s0)
    2618:	00621825 	or	v1,v1,v0
    261c:	a6030008 	sh	v1,8(s0)
    2620:	90820036 	lbu	v0,54(a0)
    2624:	00e2102b 	sltu	v0,a3,v0
    2628:	14400045 	bnez	v0,2740 <OSMutexPend+0x290>
    262c:	00000000 	nop
    2630:	8fa40010 	lw	a0,16(sp)
    2634:	0c001ca5 	jal	7294 <OS_CPU_SR_Restore>
    2638:	00000000 	nop
    263c:	24020078 	li	v0,120
    2640:	0800093a 	j	24e8 <OSMutexPend+0x38>
    2644:	a2220000 	sb	v0,0(s1)
    2648:	1062003b 	beq	v1,v0,2738 <OSMutexPend+0x288>
    264c:	2402000e 	li	v0,14
    2650:	0c00173b 	jal	5cec <OS_EventTaskRemove>
    2654:	02002821 	move	a1,s0
    2658:	2402000a 	li	v0,10
    265c:	08000975 	j	25d4 <OSMutexPend+0x124>
    2660:	a2220000 	sb	v0,0(s1)
    2664:	90820036 	lbu	v0,54(a0)
    2668:	0045102b 	sltu	v0,v0,a1
    266c:	1040ffc5 	beqz	v0,2584 <OSMutexPend+0xd4>
    2670:	278a7844 	addiu	t2,gp,30788
    2674:	90c90038 	lbu	t1,56(a2)
    2678:	01492021 	addu	a0,t2,t1
    267c:	90830000 	lbu	v1,0(a0)
    2680:	90c50039 	lbu	a1,57(a2)
    2684:	00651024 	and	v0,v1,a1
    2688:	10400032 	beqz	v0,2754 <OSMutexPend+0x2a4>
    268c:	00051027 	nor	v0,zero,a1
    2690:	00621024 	and	v0,v1,v0
    2694:	14400006 	bnez	v0,26b0 <OSMutexPend+0x200>
    2698:	a0820000 	sb	v0,0(a0)
    269c:	90c2003a 	lbu	v0,58(a2)
    26a0:	93837840 	lbu	v1,30784(gp)
    26a4:	00021027 	nor	v0,zero,v0
    26a8:	00431024 	and	v0,v0,v1
    26ac:	a3827840 	sb	v0,30784(gp)
    26b0:	24080001 	li	t0,1
    26b4:	000718c2 	srl	v1,a3,0x3
    26b8:	30e20007 	andi	v0,a3,0x7
    26bc:	a0c30038 	sb	v1,56(a2)
    26c0:	a0c20037 	sb	v0,55(a2)
    26c4:	24030001 	li	v1,1
    26c8:	304200ff 	andi	v0,v0,0xff
    26cc:	90c40038 	lbu	a0,56(a2)
    26d0:	00431004 	sllv	v0,v1,v0
    26d4:	00832004 	sllv	a0,v1,a0
    26d8:	304500ff 	andi	a1,v0,0xff
    26dc:	a0c70036 	sb	a3,54(a2)
    26e0:	a0c4003a 	sb	a0,58(a2)
    26e4:	1103002a 	beq	t0,v1,2790 <OSMutexPend+0x2e0>
    26e8:	a0c50039 	sb	a1,57(a2)
    26ec:	8cc5001c 	lw	a1,28(a2)
    26f0:	10a0000b 	beqz	a1,2720 <OSMutexPend+0x270>
    26f4:	3c020001 	lui	v0,0x1
    26f8:	90a2000a 	lbu	v0,10(a1)
    26fc:	00821025 	or	v0,a0,v0
    2700:	a0a2000a 	sb	v0,10(a1)
    2704:	90c30038 	lbu	v1,56(a2)
    2708:	90c40039 	lbu	a0,57(a2)
    270c:	00a31821 	addu	v1,a1,v1
    2710:	9062000b 	lbu	v0,11(v1)
    2714:	00441025 	or	v0,v0,a0
    2718:	a062000b 	sb	v0,11(v1)
    271c:	3c020001 	lui	v0,0x1
    2720:	00071880 	sll	v1,a3,0x2
    2724:	244297b4 	addiu	v0,v0,-26700
    2728:	00621821 	addu	v1,v1,v0
    272c:	8f847854 	lw	a0,30804(gp)
    2730:	08000961 	j	2584 <OSMutexPend+0xd4>
    2734:	ac660000 	sw	a2,0(v1)
    2738:	08000975 	j	25d4 <OSMutexPend+0x124>
    273c:	a2220000 	sb	v0,0(s1)
    2740:	8fa40010 	lw	a0,16(sp)
    2744:	0c001ca5 	jal	7294 <OS_CPU_SR_Restore>
    2748:	00000000 	nop
    274c:	0800093a 	j	24e8 <OSMutexPend+0x38>
    2750:	a2200000 	sb	zero,0(s1)
    2754:	8cc8001c 	lw	t0,28(a2)
    2758:	11000016 	beqz	t0,27b4 <OSMutexPend+0x304>
    275c:	01092021 	addu	a0,t0,t1
    2760:	9083000b 	lbu	v1,11(a0)
    2764:	00051027 	nor	v0,zero,a1
    2768:	00431024 	and	v0,v0,v1
    276c:	14400011 	bnez	v0,27b4 <OSMutexPend+0x304>
    2770:	a082000b 	sb	v0,11(a0)
    2774:	90c2003a 	lbu	v0,58(a2)
    2778:	9103000a 	lbu	v1,10(t0)
    277c:	00021027 	nor	v0,zero,v0
    2780:	00431024 	and	v0,v0,v1
    2784:	a102000a 	sb	v0,10(t0)
    2788:	080009ad 	j	26b4 <OSMutexPend+0x204>
    278c:	00004021 	move	t0,zero
    2790:	93827840 	lbu	v0,30784(gp)
    2794:	00441025 	or	v0,v0,a0
    2798:	a3827840 	sb	v0,30784(gp)
    279c:	90c30038 	lbu	v1,56(a2)
    27a0:	01431821 	addu	v1,t2,v1
    27a4:	90620000 	lbu	v0,0(v1)
    27a8:	00a21025 	or	v0,a1,v0
    27ac:	080009c7 	j	271c <OSMutexPend+0x26c>
    27b0:	a0620000 	sb	v0,0(v1)
    27b4:	080009ad 	j	26b4 <OSMutexPend+0x204>
    27b8:	00004021 	move	t0,zero

000027bc <OSMutexCreate>:
    27bc:	93827850 	lbu	v0,30800(gp)
    27c0:	27bdffd8 	addiu	sp,sp,-40
    27c4:	afb20020 	sw	s2,32(sp)
    27c8:	afb1001c 	sw	s1,28(sp)
    27cc:	afbf0024 	sw	ra,36(sp)
    27d0:	afb00018 	sw	s0,24(sp)
    27d4:	00a09021 	move	s2,a1
    27d8:	309100ff 	andi	s1,a0,0xff
    27dc:	afa00010 	sw	zero,16(sp)
    27e0:	14400037 	bnez	v0,28c0 <OSMutexCreate+0x104>
    27e4:	24020010 	li	v0,16
    27e8:	0c001c9e 	jal	7278 <OS_CPU_SR_Save>
    27ec:	00000000 	nop
    27f0:	3c030001 	lui	v1,0x1
    27f4:	00112880 	sll	a1,s1,0x2
    27f8:	246397b4 	addiu	v1,v1,-26700
    27fc:	00a32821 	addu	a1,a1,v1
    2800:	8ca40000 	lw	a0,0(a1)
    2804:	afa20010 	sw	v0,16(sp)
    2808:	14800027 	bnez	a0,28a8 <OSMutexCreate+0xec>
    280c:	24020001 	li	v0,1
    2810:	8f90784c 	lw	s0,30796(gp)
    2814:	12000018 	beqz	s0,2878 <OSMutexCreate+0xbc>
    2818:	aca20000 	sw	v0,0(a1)
    281c:	8e020004 	lw	v0,4(s0)
    2820:	8fa40010 	lw	a0,16(sp)
    2824:	0c001ca5 	jal	7294 <OS_CPU_SR_Restore>
    2828:	af82784c 	sw	v0,30796(gp)
    282c:	24020004 	li	v0,4
    2830:	a2020000 	sb	v0,0(s0)
    2834:	00111a00 	sll	v1,s1,0x8
    2838:	3c020000 	lui	v0,0x0
    283c:	346300ff 	ori	v1,v1,0xff
    2840:	244277a4 	addiu	v0,v0,30628
    2844:	a6030008 	sh	v1,8(s0)
    2848:	ae020014 	sw	v0,20(s0)
    284c:	ae000004 	sw	zero,4(s0)
    2850:	0c001761 	jal	5d84 <OS_EventWaitListInit>
    2854:	02002021 	move	a0,s0
    2858:	a2400000 	sb	zero,0(s2)
    285c:	8fbf0024 	lw	ra,36(sp)
    2860:	02001021 	move	v0,s0
    2864:	8fb20020 	lw	s2,32(sp)
    2868:	8fb1001c 	lw	s1,28(sp)
    286c:	8fb00018 	lw	s0,24(sp)
    2870:	03e00008 	jr	ra
    2874:	27bd0028 	addiu	sp,sp,40
    2878:	8fa40010 	lw	a0,16(sp)
    287c:	0c001ca5 	jal	7294 <OS_CPU_SR_Restore>
    2880:	aca00000 	sw	zero,0(a1)
    2884:	24020004 	li	v0,4
    2888:	a2420000 	sb	v0,0(s2)
    288c:	8fbf0024 	lw	ra,36(sp)
    2890:	02001021 	move	v0,s0
    2894:	8fb20020 	lw	s2,32(sp)
    2898:	8fb1001c 	lw	s1,28(sp)
    289c:	8fb00018 	lw	s0,24(sp)
    28a0:	03e00008 	jr	ra
    28a4:	27bd0028 	addiu	sp,sp,40
    28a8:	8fa40010 	lw	a0,16(sp)
    28ac:	0c001ca5 	jal	7294 <OS_CPU_SR_Restore>
    28b0:	00008021 	move	s0,zero
    28b4:	24020028 	li	v0,40
    28b8:	08000a17 	j	285c <OSMutexCreate+0xa0>
    28bc:	a2420000 	sb	v0,0(s2)
    28c0:	a0a20000 	sb	v0,0(a1)
    28c4:	08000a17 	j	285c <OSMutexCreate+0xa0>
    28c8:	00008021 	move	s0,zero

000028cc <OS_QInit>:
    28cc:	27bdffe8 	addiu	sp,sp,-24
    28d0:	afb00010 	sw	s0,16(sp)
    28d4:	3c100001 	lui	s0,0x1
    28d8:	26048ad4 	addiu	a0,s0,-29996
    28dc:	afbf0014 	sw	ra,20(sp)
    28e0:	0c00176a 	jal	5da8 <OS_MemClr>
    28e4:	24050060 	li	a1,96
    28e8:	3c020001 	lui	v0,0x1
    28ec:	3c030001 	lui	v1,0x1
    28f0:	24428aec 	addiu	v0,v0,-29972
    28f4:	24638b34 	addiu	v1,v1,-29900
    28f8:	ac42ffe8 	sw	v0,-24(v0)
    28fc:	24420018 	addiu	v0,v0,24
    2900:	1462fffd 	bne	v1,v0,28f8 <OS_QInit+0x2c>
    2904:	8fbf0014 	lw	ra,20(sp)
    2908:	26028ad4 	addiu	v0,s0,-29996
    290c:	af82783c 	sw	v0,30780(gp)
    2910:	8fb00010 	lw	s0,16(sp)
    2914:	ac400048 	sw	zero,72(v0)
    2918:	03e00008 	jr	ra
    291c:	27bd0018 	addiu	sp,sp,24

00002920 <OSQQuery>:
    2920:	27bdffd8 	addiu	sp,sp,-40
    2924:	afb10020 	sw	s1,32(sp)
    2928:	afb0001c 	sw	s0,28(sp)
    292c:	afbf0024 	sw	ra,36(sp)
    2930:	90830000 	lbu	v1,0(a0)
    2934:	24020002 	li	v0,2
    2938:	00808021 	move	s0,a0
    293c:	00a08821 	move	s1,a1
    2940:	afa00010 	sw	zero,16(sp)
    2944:	10620006 	beq	v1,v0,2960 <OSQQuery+0x40>
    2948:	8fbf0024 	lw	ra,36(sp)
    294c:	24020001 	li	v0,1
    2950:	8fb10020 	lw	s1,32(sp)
    2954:	8fb0001c 	lw	s0,28(sp)
    2958:	03e00008 	jr	ra
    295c:	27bd0028 	addiu	sp,sp,40
    2960:	0c001c9e 	jal	7278 <OS_CPU_SR_Save>
    2964:	00000000 	nop
    2968:	9203000a 	lbu	v1,10(s0)
    296c:	2605000b 	addiu	a1,s0,11
    2970:	afa20010 	sw	v0,16(sp)
    2974:	26240008 	addiu	a0,s1,8
    2978:	a2230010 	sb	v1,16(s1)
    297c:	00001021 	move	v0,zero
    2980:	24060008 	li	a2,8
    2984:	90a30000 	lbu	v1,0(a1)
    2988:	24420001 	addiu	v0,v0,1
    298c:	304200ff 	andi	v0,v0,0xff
    2990:	a0830000 	sb	v1,0(a0)
    2994:	24a50001 	addiu	a1,a1,1
    2998:	1446fffa 	bne	v0,a2,2984 <OSQQuery+0x64>
    299c:	24840001 	addiu	a0,a0,1
    29a0:	8e050004 	lw	a1,4(s0)
    29a4:	94a20016 	lhu	v0,22(a1)
    29a8:	10400010 	beqz	v0,29ec <OSQQuery+0xcc>
    29ac:	00000000 	nop
    29b0:	8ca20010 	lw	v0,16(a1)
    29b4:	8c430000 	lw	v1,0(v0)
    29b8:	ae230000 	sw	v1,0(s1)
    29bc:	94a20016 	lhu	v0,22(a1)
    29c0:	8fa40010 	lw	a0,16(sp)
    29c4:	a6220004 	sh	v0,4(s1)
    29c8:	94a30014 	lhu	v1,20(a1)
    29cc:	0c001ca5 	jal	7294 <OS_CPU_SR_Restore>
    29d0:	a6230006 	sh	v1,6(s1)
    29d4:	8fbf0024 	lw	ra,36(sp)
    29d8:	00001021 	move	v0,zero
    29dc:	8fb10020 	lw	s1,32(sp)
    29e0:	8fb0001c 	lw	s0,28(sp)
    29e4:	03e00008 	jr	ra
    29e8:	27bd0028 	addiu	sp,sp,40
    29ec:	08000a6f 	j	29bc <OSQQuery+0x9c>
    29f0:	ae200000 	sw	zero,0(s1)

000029f4 <OSQFlush>:
    29f4:	27bdffe0 	addiu	sp,sp,-32
    29f8:	afb00018 	sw	s0,24(sp)
    29fc:	00808021 	move	s0,a0
    2a00:	afbf001c 	sw	ra,28(sp)
    2a04:	afa00010 	sw	zero,16(sp)
    2a08:	0c001c9e 	jal	7278 <OS_CPU_SR_Save>
    2a0c:	00000000 	nop
    2a10:	8e030004 	lw	v1,4(s0)
    2a14:	afa20010 	sw	v0,16(sp)
    2a18:	8c620004 	lw	v0,4(v1)
    2a1c:	8fa40010 	lw	a0,16(sp)
    2a20:	ac620010 	sw	v0,16(v1)
    2a24:	ac62000c 	sw	v0,12(v1)
    2a28:	0c001ca5 	jal	7294 <OS_CPU_SR_Restore>
    2a2c:	a4600016 	sh	zero,22(v1)
    2a30:	8fbf001c 	lw	ra,28(sp)
    2a34:	00001021 	move	v0,zero
    2a38:	8fb00018 	lw	s0,24(sp)
    2a3c:	03e00008 	jr	ra
    2a40:	27bd0020 	addiu	sp,sp,32

00002a44 <OSQAccept>:
    2a44:	27bdffd8 	addiu	sp,sp,-40
    2a48:	afb10020 	sw	s1,32(sp)
    2a4c:	afb0001c 	sw	s0,28(sp)
    2a50:	afbf0024 	sw	ra,36(sp)
    2a54:	90830000 	lbu	v1,0(a0)
    2a58:	24020002 	li	v0,2
    2a5c:	00808021 	move	s0,a0
    2a60:	00a08821 	move	s1,a1
    2a64:	afa00010 	sw	zero,16(sp)
    2a68:	14620021 	bne	v1,v0,2af0 <OSQAccept+0xac>
    2a6c:	24020001 	li	v0,1
    2a70:	0c001c9e 	jal	7278 <OS_CPU_SR_Save>
    2a74:	00000000 	nop
    2a78:	8e060004 	lw	a2,4(s0)
    2a7c:	afa20010 	sw	v0,16(sp)
    2a80:	94c20016 	lhu	v0,22(a2)
    2a84:	1440000d 	bnez	v0,2abc <OSQAccept+0x78>
    2a88:	2442ffff 	addiu	v0,v0,-1
    2a8c:	2402001f 	li	v0,31
    2a90:	a2220000 	sb	v0,0(s1)
    2a94:	00008021 	move	s0,zero
    2a98:	8fa40010 	lw	a0,16(sp)
    2a9c:	0c001ca5 	jal	7294 <OS_CPU_SR_Restore>
    2aa0:	00000000 	nop
    2aa4:	8fbf0024 	lw	ra,36(sp)
    2aa8:	02001021 	move	v0,s0
    2aac:	8fb10020 	lw	s1,32(sp)
    2ab0:	8fb0001c 	lw	s0,28(sp)
    2ab4:	03e00008 	jr	ra
    2ab8:	27bd0028 	addiu	sp,sp,40
    2abc:	8cc40010 	lw	a0,16(a2)
    2ac0:	8cc50008 	lw	a1,8(a2)
    2ac4:	24830004 	addiu	v1,a0,4
    2ac8:	a4c20016 	sh	v0,22(a2)
    2acc:	acc30010 	sw	v1,16(a2)
    2ad0:	10650003 	beq	v1,a1,2ae0 <OSQAccept+0x9c>
    2ad4:	8c900000 	lw	s0,0(a0)
    2ad8:	08000aa6 	j	2a98 <OSQAccept+0x54>
    2adc:	a2200000 	sb	zero,0(s1)
    2ae0:	8cc20004 	lw	v0,4(a2)
    2ae4:	acc20010 	sw	v0,16(a2)
    2ae8:	08000aa6 	j	2a98 <OSQAccept+0x54>
    2aec:	a2200000 	sb	zero,0(s1)
    2af0:	a0a20000 	sb	v0,0(a1)
    2af4:	8fbf0024 	lw	ra,36(sp)
    2af8:	00008021 	move	s0,zero
    2afc:	02001021 	move	v0,s0
    2b00:	8fb10020 	lw	s1,32(sp)
    2b04:	8fb0001c 	lw	s0,28(sp)
    2b08:	03e00008 	jr	ra
    2b0c:	27bd0028 	addiu	sp,sp,40

00002b10 <OSQPostOpt>:
    2b10:	27bdffd8 	addiu	sp,sp,-40
    2b14:	afb20020 	sw	s2,32(sp)
    2b18:	afb1001c 	sw	s1,28(sp)
    2b1c:	afb00018 	sw	s0,24(sp)
    2b20:	afbf0024 	sw	ra,36(sp)
    2b24:	90830000 	lbu	v1,0(a0)
    2b28:	24020002 	li	v0,2
    2b2c:	00808021 	move	s0,a0
    2b30:	00a09021 	move	s2,a1
    2b34:	30d100ff 	andi	s1,a2,0xff
    2b38:	afa00010 	sw	zero,16(sp)
    2b3c:	10620007 	beq	v1,v0,2b5c <OSQPostOpt+0x4c>
    2b40:	24020001 	li	v0,1
    2b44:	8fbf0024 	lw	ra,36(sp)
    2b48:	8fb20020 	lw	s2,32(sp)
    2b4c:	8fb1001c 	lw	s1,28(sp)
    2b50:	8fb00018 	lw	s0,24(sp)
    2b54:	03e00008 	jr	ra
    2b58:	27bd0028 	addiu	sp,sp,40
    2b5c:	0c001c9e 	jal	7278 <OS_CPU_SR_Save>
    2b60:	00000000 	nop
    2b64:	9203000a 	lbu	v1,10(s0)
    2b68:	afa20010 	sw	v0,16(sp)
    2b6c:	10600017 	beqz	v1,2bcc <OSQPostOpt+0xbc>
    2b70:	32220001 	andi	v0,s1,0x1
    2b74:	1040003c 	beqz	v0,2c68 <OSQPostOpt+0x158>
    2b78:	02002021 	move	a0,s0
    2b7c:	02402821 	move	a1,s2
    2b80:	24060004 	li	a2,4
    2b84:	0c0016ae 	jal	5ab8 <OS_EventTaskRdy>
    2b88:	00003821 	move	a3,zero
    2b8c:	9203000a 	lbu	v1,10(s0)
    2b90:	1460fffa 	bnez	v1,2b7c <OSQPostOpt+0x6c>
    2b94:	02002021 	move	a0,s0
    2b98:	8fa40010 	lw	a0,16(sp)
    2b9c:	0c001ca5 	jal	7294 <OS_CPU_SR_Restore>
    2ba0:	00000000 	nop
    2ba4:	32220004 	andi	v0,s1,0x4
    2ba8:	10400019 	beqz	v0,2c10 <OSQPostOpt+0x100>
    2bac:	00000000 	nop
    2bb0:	00001021 	move	v0,zero
    2bb4:	8fbf0024 	lw	ra,36(sp)
    2bb8:	8fb20020 	lw	s2,32(sp)
    2bbc:	8fb1001c 	lw	s1,28(sp)
    2bc0:	8fb00018 	lw	s0,24(sp)
    2bc4:	03e00008 	jr	ra
    2bc8:	27bd0028 	addiu	sp,sp,40
    2bcc:	8e050004 	lw	a1,4(s0)
    2bd0:	94a20016 	lhu	v0,22(a1)
    2bd4:	94a30014 	lhu	v1,20(a1)
    2bd8:	0043102b 	sltu	v0,v0,v1
    2bdc:	1040001d 	beqz	v0,2c54 <OSQPostOpt+0x144>
    2be0:	00000000 	nop
    2be4:	32220002 	andi	v0,s1,0x2
    2be8:	1040000d 	beqz	v0,2c20 <OSQPostOpt+0x110>
    2bec:	00000000 	nop
    2bf0:	8ca30010 	lw	v1,16(a1)
    2bf4:	8ca20004 	lw	v0,4(a1)
    2bf8:	10620024 	beq	v1,v0,2c8c <OSQPostOpt+0x17c>
    2bfc:	00000000 	nop
    2c00:	2462fffc 	addiu	v0,v1,-4
    2c04:	ac72fffc 	sw	s2,-4(v1)
    2c08:	08000b0e 	j	2c38 <OSQPostOpt+0x128>
    2c0c:	aca20010 	sw	v0,16(a1)
    2c10:	0c001790 	jal	5e40 <OS_Sched>
    2c14:	00000000 	nop
    2c18:	08000ad1 	j	2b44 <OSQPostOpt+0x34>
    2c1c:	00001021 	move	v0,zero
    2c20:	8ca2000c 	lw	v0,12(a1)
    2c24:	8ca40008 	lw	a0,8(a1)
    2c28:	24430004 	addiu	v1,v0,4
    2c2c:	ac520000 	sw	s2,0(v0)
    2c30:	10640013 	beq	v1,a0,2c80 <OSQPostOpt+0x170>
    2c34:	aca3000c 	sw	v1,12(a1)
    2c38:	94a20016 	lhu	v0,22(a1)
    2c3c:	8fa40010 	lw	a0,16(sp)
    2c40:	24420001 	addiu	v0,v0,1
    2c44:	0c001ca5 	jal	7294 <OS_CPU_SR_Restore>
    2c48:	a4a20016 	sh	v0,22(a1)
    2c4c:	08000aed 	j	2bb4 <OSQPostOpt+0xa4>
    2c50:	00001021 	move	v0,zero
    2c54:	8fa40010 	lw	a0,16(sp)
    2c58:	0c001ca5 	jal	7294 <OS_CPU_SR_Restore>
    2c5c:	00000000 	nop
    2c60:	08000ad1 	j	2b44 <OSQPostOpt+0x34>
    2c64:	2402001e 	li	v0,30
    2c68:	02402821 	move	a1,s2
    2c6c:	24060004 	li	a2,4
    2c70:	0c0016ae 	jal	5ab8 <OS_EventTaskRdy>
    2c74:	00003821 	move	a3,zero
    2c78:	08000ae6 	j	2b98 <OSQPostOpt+0x88>
    2c7c:	00000000 	nop
    2c80:	8ca20004 	lw	v0,4(a1)
    2c84:	08000b0e 	j	2c38 <OSQPostOpt+0x128>
    2c88:	aca2000c 	sw	v0,12(a1)
    2c8c:	8ca30008 	lw	v1,8(a1)
    2c90:	08000b00 	j	2c00 <OSQPostOpt+0xf0>
    2c94:	aca30010 	sw	v1,16(a1)

00002c98 <OSQPostFront>:
    2c98:	27bdffd8 	addiu	sp,sp,-40
    2c9c:	afb10020 	sw	s1,32(sp)
    2ca0:	afb0001c 	sw	s0,28(sp)
    2ca4:	afbf0024 	sw	ra,36(sp)
    2ca8:	90830000 	lbu	v1,0(a0)
    2cac:	24020002 	li	v0,2
    2cb0:	00808021 	move	s0,a0
    2cb4:	00a08821 	move	s1,a1
    2cb8:	afa00010 	sw	zero,16(sp)
    2cbc:	10620006 	beq	v1,v0,2cd8 <OSQPostFront+0x40>
    2cc0:	24020001 	li	v0,1
    2cc4:	8fbf0024 	lw	ra,36(sp)
    2cc8:	8fb10020 	lw	s1,32(sp)
    2ccc:	8fb0001c 	lw	s0,28(sp)
    2cd0:	03e00008 	jr	ra
    2cd4:	27bd0028 	addiu	sp,sp,40
    2cd8:	0c001c9e 	jal	7278 <OS_CPU_SR_Save>
    2cdc:	00000000 	nop
    2ce0:	9203000a 	lbu	v1,10(s0)
    2ce4:	afa20010 	sw	v0,16(sp)
    2ce8:	1460001a 	bnez	v1,2d54 <OSQPostFront+0xbc>
    2cec:	02202821 	move	a1,s1
    2cf0:	8e050004 	lw	a1,4(s0)
    2cf4:	94a20016 	lhu	v0,22(a1)
    2cf8:	94a30014 	lhu	v1,20(a1)
    2cfc:	0043102b 	sltu	v0,v0,v1
    2d00:	14400006 	bnez	v0,2d1c <OSQPostFront+0x84>
    2d04:	00000000 	nop
    2d08:	8fa40010 	lw	a0,16(sp)
    2d0c:	0c001ca5 	jal	7294 <OS_CPU_SR_Restore>
    2d10:	00000000 	nop
    2d14:	08000b31 	j	2cc4 <OSQPostFront+0x2c>
    2d18:	2402001e 	li	v0,30
    2d1c:	8ca60010 	lw	a2,16(a1)
    2d20:	8ca20004 	lw	v0,4(a1)
    2d24:	10c20016 	beq	a2,v0,2d80 <OSQPostFront+0xe8>
    2d28:	00000000 	nop
    2d2c:	94a20016 	lhu	v0,22(a1)
    2d30:	24c3fffc 	addiu	v1,a2,-4
    2d34:	24420001 	addiu	v0,v0,1
    2d38:	8fa40010 	lw	a0,16(sp)
    2d3c:	a4a20016 	sh	v0,22(a1)
    2d40:	acd1fffc 	sw	s1,-4(a2)
    2d44:	0c001ca5 	jal	7294 <OS_CPU_SR_Restore>
    2d48:	aca30010 	sw	v1,16(a1)
    2d4c:	08000b31 	j	2cc4 <OSQPostFront+0x2c>
    2d50:	00001021 	move	v0,zero
    2d54:	24060004 	li	a2,4
    2d58:	00003821 	move	a3,zero
    2d5c:	0c0016ae 	jal	5ab8 <OS_EventTaskRdy>
    2d60:	02002021 	move	a0,s0
    2d64:	8fa40010 	lw	a0,16(sp)
    2d68:	0c001ca5 	jal	7294 <OS_CPU_SR_Restore>
    2d6c:	00000000 	nop
    2d70:	0c001790 	jal	5e40 <OS_Sched>
    2d74:	00000000 	nop
    2d78:	08000b31 	j	2cc4 <OSQPostFront+0x2c>
    2d7c:	00001021 	move	v0,zero
    2d80:	8ca60008 	lw	a2,8(a1)
    2d84:	08000b4b 	j	2d2c <OSQPostFront+0x94>
    2d88:	aca60010 	sw	a2,16(a1)

00002d8c <OSQPost>:
    2d8c:	27bdffd8 	addiu	sp,sp,-40
    2d90:	afb10020 	sw	s1,32(sp)
    2d94:	afb0001c 	sw	s0,28(sp)
    2d98:	afbf0024 	sw	ra,36(sp)
    2d9c:	90830000 	lbu	v1,0(a0)
    2da0:	24020002 	li	v0,2
    2da4:	00808021 	move	s0,a0
    2da8:	00a08821 	move	s1,a1
    2dac:	afa00010 	sw	zero,16(sp)
    2db0:	10620006 	beq	v1,v0,2dcc <OSQPost+0x40>
    2db4:	24020001 	li	v0,1
    2db8:	8fbf0024 	lw	ra,36(sp)
    2dbc:	8fb10020 	lw	s1,32(sp)
    2dc0:	8fb0001c 	lw	s0,28(sp)
    2dc4:	03e00008 	jr	ra
    2dc8:	27bd0028 	addiu	sp,sp,40
    2dcc:	0c001c9e 	jal	7278 <OS_CPU_SR_Save>
    2dd0:	00000000 	nop
    2dd4:	9203000a 	lbu	v1,10(s0)
    2dd8:	afa20010 	sw	v0,16(sp)
    2ddc:	14600019 	bnez	v1,2e44 <OSQPost+0xb8>
    2de0:	02202821 	move	a1,s1
    2de4:	8e060004 	lw	a2,4(s0)
    2de8:	94c70016 	lhu	a3,22(a2)
    2dec:	94c20014 	lhu	v0,20(a2)
    2df0:	00e2102b 	sltu	v0,a3,v0
    2df4:	14400006 	bnez	v0,2e10 <OSQPost+0x84>
    2df8:	00000000 	nop
    2dfc:	8fa40010 	lw	a0,16(sp)
    2e00:	0c001ca5 	jal	7294 <OS_CPU_SR_Restore>
    2e04:	00000000 	nop
    2e08:	08000b6e 	j	2db8 <OSQPost+0x2c>
    2e0c:	2402001e 	li	v0,30
    2e10:	8cc3000c 	lw	v1,12(a2)
    2e14:	8cc50008 	lw	a1,8(a2)
    2e18:	24640004 	addiu	a0,v1,4
    2e1c:	24e20001 	addiu	v0,a3,1
    2e20:	ac710000 	sw	s1,0(v1)
    2e24:	a4c20016 	sh	v0,22(a2)
    2e28:	10850011 	beq	a0,a1,2e70 <OSQPost+0xe4>
    2e2c:	acc4000c 	sw	a0,12(a2)
    2e30:	8fa40010 	lw	a0,16(sp)
    2e34:	0c001ca5 	jal	7294 <OS_CPU_SR_Restore>
    2e38:	00000000 	nop
    2e3c:	08000b6e 	j	2db8 <OSQPost+0x2c>
    2e40:	00001021 	move	v0,zero
    2e44:	24060004 	li	a2,4
    2e48:	00003821 	move	a3,zero
    2e4c:	0c0016ae 	jal	5ab8 <OS_EventTaskRdy>
    2e50:	02002021 	move	a0,s0
    2e54:	8fa40010 	lw	a0,16(sp)
    2e58:	0c001ca5 	jal	7294 <OS_CPU_SR_Restore>
    2e5c:	00000000 	nop
    2e60:	0c001790 	jal	5e40 <OS_Sched>
    2e64:	00000000 	nop
    2e68:	08000b6e 	j	2db8 <OSQPost+0x2c>
    2e6c:	00001021 	move	v0,zero
    2e70:	8cc20004 	lw	v0,4(a2)
    2e74:	08000b8c 	j	2e30 <OSQPost+0xa4>
    2e78:	acc2000c 	sw	v0,12(a2)

00002e7c <OSQPendAbort>:
    2e7c:	27bdffd8 	addiu	sp,sp,-40
    2e80:	afb20020 	sw	s2,32(sp)
    2e84:	afb1001c 	sw	s1,28(sp)
    2e88:	afb00018 	sw	s0,24(sp)
    2e8c:	afbf0024 	sw	ra,36(sp)
    2e90:	90830000 	lbu	v1,0(a0)
    2e94:	24020002 	li	v0,2
    2e98:	00808821 	move	s1,a0
    2e9c:	00c09021 	move	s2,a2
    2ea0:	30b000ff 	andi	s0,a1,0xff
    2ea4:	afa00010 	sw	zero,16(sp)
    2ea8:	1062000a 	beq	v1,v0,2ed4 <OSQPendAbort+0x58>
    2eac:	24020001 	li	v0,1
    2eb0:	a0c20000 	sb	v0,0(a2)
    2eb4:	00008021 	move	s0,zero
    2eb8:	8fbf0024 	lw	ra,36(sp)
    2ebc:	02001021 	move	v0,s0
    2ec0:	8fb20020 	lw	s2,32(sp)
    2ec4:	8fb1001c 	lw	s1,28(sp)
    2ec8:	8fb00018 	lw	s0,24(sp)
    2ecc:	03e00008 	jr	ra
    2ed0:	27bd0028 	addiu	sp,sp,40
    2ed4:	0c001c9e 	jal	7278 <OS_CPU_SR_Save>
    2ed8:	00000000 	nop
    2edc:	9223000a 	lbu	v1,10(s1)
    2ee0:	afa20010 	sw	v0,16(sp)
    2ee4:	10600022 	beqz	v1,2f70 <OSQPendAbort+0xf4>
    2ee8:	24020001 	li	v0,1
    2eec:	12020014 	beq	s0,v0,2f40 <OSQPendAbort+0xc4>
    2ef0:	02202021 	move	a0,s1
    2ef4:	00002821 	move	a1,zero
    2ef8:	24060004 	li	a2,4
    2efc:	0c0016ae 	jal	5ab8 <OS_EventTaskRdy>
    2f00:	24070002 	li	a3,2
    2f04:	24100001 	li	s0,1
    2f08:	8fa40010 	lw	a0,16(sp)
    2f0c:	0c001ca5 	jal	7294 <OS_CPU_SR_Restore>
    2f10:	00000000 	nop
    2f14:	0c001790 	jal	5e40 <OS_Sched>
    2f18:	00000000 	nop
    2f1c:	2402000e 	li	v0,14
    2f20:	a2420000 	sb	v0,0(s2)
    2f24:	8fbf0024 	lw	ra,36(sp)
    2f28:	02001021 	move	v0,s0
    2f2c:	8fb20020 	lw	s2,32(sp)
    2f30:	8fb1001c 	lw	s1,28(sp)
    2f34:	8fb00018 	lw	s0,24(sp)
    2f38:	03e00008 	jr	ra
    2f3c:	27bd0028 	addiu	sp,sp,40
    2f40:	00008021 	move	s0,zero
    2f44:	02202021 	move	a0,s1
    2f48:	00002821 	move	a1,zero
    2f4c:	24060004 	li	a2,4
    2f50:	0c0016ae 	jal	5ab8 <OS_EventTaskRdy>
    2f54:	24070002 	li	a3,2
    2f58:	9223000a 	lbu	v1,10(s1)
    2f5c:	26020001 	addiu	v0,s0,1
    2f60:	1460fff8 	bnez	v1,2f44 <OSQPendAbort+0xc8>
    2f64:	305000ff 	andi	s0,v0,0xff
    2f68:	08000bc2 	j	2f08 <OSQPendAbort+0x8c>
    2f6c:	00000000 	nop
    2f70:	8fa40010 	lw	a0,16(sp)
    2f74:	0c001ca5 	jal	7294 <OS_CPU_SR_Restore>
    2f78:	00008021 	move	s0,zero
    2f7c:	08000bae 	j	2eb8 <OSQPendAbort+0x3c>
    2f80:	a2400000 	sb	zero,0(s2)

00002f84 <OSQDel>:
    2f84:	27bdffd0 	addiu	sp,sp,-48
    2f88:	afb20024 	sw	s2,36(sp)
    2f8c:	afb10020 	sw	s1,32(sp)
    2f90:	afb0001c 	sw	s0,28(sp)
    2f94:	afbf002c 	sw	ra,44(sp)
    2f98:	afb30028 	sw	s3,40(sp)
    2f9c:	afa00010 	sw	zero,16(sp)
    2fa0:	90830000 	lbu	v1,0(a0)
    2fa4:	24020002 	li	v0,2
    2fa8:	00808021 	move	s0,a0
    2fac:	00c09021 	move	s2,a2
    2fb0:	1062000b 	beq	v1,v0,2fe0 <OSQDel+0x5c>
    2fb4:	30b100ff 	andi	s1,a1,0xff
    2fb8:	24020001 	li	v0,1
    2fbc:	a0c20000 	sb	v0,0(a2)
    2fc0:	8fbf002c 	lw	ra,44(sp)
    2fc4:	02001021 	move	v0,s0
    2fc8:	8fb30028 	lw	s3,40(sp)
    2fcc:	8fb20024 	lw	s2,36(sp)
    2fd0:	8fb10020 	lw	s1,32(sp)
    2fd4:	8fb0001c 	lw	s0,28(sp)
    2fd8:	03e00008 	jr	ra
    2fdc:	27bd0030 	addiu	sp,sp,48
    2fe0:	93827850 	lbu	v0,30800(gp)
    2fe4:	1040000a 	beqz	v0,3010 <OSQDel+0x8c>
    2fe8:	2402000f 	li	v0,15
    2fec:	a0c20000 	sb	v0,0(a2)
    2ff0:	8fbf002c 	lw	ra,44(sp)
    2ff4:	02001021 	move	v0,s0
    2ff8:	8fb30028 	lw	s3,40(sp)
    2ffc:	8fb20024 	lw	s2,36(sp)
    3000:	8fb10020 	lw	s1,32(sp)
    3004:	8fb0001c 	lw	s0,28(sp)
    3008:	03e00008 	jr	ra
    300c:	27bd0030 	addiu	sp,sp,48
    3010:	0c001c9e 	jal	7278 <OS_CPU_SR_Save>
    3014:	00000000 	nop
    3018:	afa20010 	sw	v0,16(sp)
    301c:	9202000a 	lbu	v0,10(s0)
    3020:	16200013 	bnez	s1,3070 <OSQDel+0xec>
    3024:	0002982b 	sltu	s3,zero,v0
    3028:	1660001a 	bnez	s3,3094 <OSQDel+0x110>
    302c:	8f82783c 	lw	v0,30780(gp)
    3030:	8e030004 	lw	v1,4(s0)
    3034:	a6000008 	sh	zero,8(s0)
    3038:	ac620000 	sw	v0,0(v1)
    303c:	af83783c 	sw	v1,30780(gp)
    3040:	a2000000 	sb	zero,0(s0)
    3044:	8f83784c 	lw	v1,30796(gp)
    3048:	3c020000 	lui	v0,0x0
    304c:	244277a4 	addiu	v0,v0,30628
    3050:	8fa40010 	lw	a0,16(sp)
    3054:	ae020014 	sw	v0,20(s0)
    3058:	ae030004 	sw	v1,4(s0)
    305c:	0c001ca5 	jal	7294 <OS_CPU_SR_Restore>
    3060:	af90784c 	sw	s0,30796(gp)
    3064:	00008021 	move	s0,zero
    3068:	08000bf0 	j	2fc0 <OSQDel+0x3c>
    306c:	a2400000 	sb	zero,0(s2)
    3070:	24020001 	li	v0,1
    3074:	1222000d 	beq	s1,v0,30ac <OSQDel+0x128>
    3078:	00000000 	nop
    307c:	8fa40010 	lw	a0,16(sp)
    3080:	0c001ca5 	jal	7294 <OS_CPU_SR_Restore>
    3084:	00000000 	nop
    3088:	24020007 	li	v0,7
    308c:	08000bf0 	j	2fc0 <OSQDel+0x3c>
    3090:	a2420000 	sb	v0,0(s2)
    3094:	8fa40010 	lw	a0,16(sp)
    3098:	0c001ca5 	jal	7294 <OS_CPU_SR_Restore>
    309c:	00000000 	nop
    30a0:	24020049 	li	v0,73
    30a4:	08000bf0 	j	2fc0 <OSQDel+0x3c>
    30a8:	a2420000 	sb	v0,0(s2)
    30ac:	12600008 	beqz	s3,30d0 <OSQDel+0x14c>
    30b0:	02002021 	move	a0,s0
    30b4:	00002821 	move	a1,zero
    30b8:	24060004 	li	a2,4
    30bc:	0c0016ae 	jal	5ab8 <OS_EventTaskRdy>
    30c0:	00003821 	move	a3,zero
    30c4:	9203000a 	lbu	v1,10(s0)
    30c8:	1460fffa 	bnez	v1,30b4 <OSQDel+0x130>
    30cc:	02002021 	move	a0,s0
    30d0:	8e030004 	lw	v1,4(s0)
    30d4:	8f82783c 	lw	v0,30780(gp)
    30d8:	a6000008 	sh	zero,8(s0)
    30dc:	ac620000 	sw	v0,0(v1)
    30e0:	af83783c 	sw	v1,30780(gp)
    30e4:	a2000000 	sb	zero,0(s0)
    30e8:	8f83784c 	lw	v1,30796(gp)
    30ec:	3c020000 	lui	v0,0x0
    30f0:	244277a4 	addiu	v0,v0,30628
    30f4:	8fa40010 	lw	a0,16(sp)
    30f8:	ae020014 	sw	v0,20(s0)
    30fc:	ae030004 	sw	v1,4(s0)
    3100:	0c001ca5 	jal	7294 <OS_CPU_SR_Restore>
    3104:	af90784c 	sw	s0,30796(gp)
    3108:	16600004 	bnez	s3,311c <OSQDel+0x198>
    310c:	00000000 	nop
    3110:	a2400000 	sb	zero,0(s2)
    3114:	08000bf0 	j	2fc0 <OSQDel+0x3c>
    3118:	00008021 	move	s0,zero
    311c:	0c001790 	jal	5e40 <OS_Sched>
    3120:	00008021 	move	s0,zero
    3124:	08000bf0 	j	2fc0 <OSQDel+0x3c>
    3128:	a2400000 	sb	zero,0(s2)

0000312c <OSQPend>:
    312c:	27bdffd0 	addiu	sp,sp,-48
    3130:	afb30028 	sw	s3,40(sp)
    3134:	afb20024 	sw	s2,36(sp)
    3138:	afb10020 	sw	s1,32(sp)
    313c:	afbf002c 	sw	ra,44(sp)
    3140:	afb0001c 	sw	s0,28(sp)
    3144:	90900000 	lbu	s0,0(a0)
    3148:	24020002 	li	v0,2
    314c:	00808821 	move	s1,a0
    3150:	00a09821 	move	s3,a1
    3154:	00c09021 	move	s2,a2
    3158:	afa00010 	sw	zero,16(sp)
    315c:	16020050 	bne	s0,v0,32a0 <OSQPend+0x174>
    3160:	93827850 	lbu	v0,30800(gp)
    3164:	14400058 	bnez	v0,32c8 <OSQPend+0x19c>
    3168:	93827804 	lbu	v0,30724(gp)
    316c:	14400053 	bnez	v0,32bc <OSQPend+0x190>
    3170:	2402000d 	li	v0,13
    3174:	0c001c9e 	jal	7278 <OS_CPU_SR_Save>
    3178:	00000000 	nop
    317c:	8e260004 	lw	a2,4(s1)
    3180:	afa20010 	sw	v0,16(sp)
    3184:	94c20016 	lhu	v0,22(a2)
    3188:	10400014 	beqz	v0,31dc <OSQPend+0xb0>
    318c:	2442ffff 	addiu	v0,v0,-1
    3190:	8cc40010 	lw	a0,16(a2)
    3194:	8cc50008 	lw	a1,8(a2)
    3198:	24830004 	addiu	v1,a0,4
    319c:	a4c20016 	sh	v0,22(a2)
    31a0:	acc30010 	sw	v1,16(a2)
    31a4:	1065003b 	beq	v1,a1,3294 <OSQPend+0x168>
    31a8:	8c900000 	lw	s0,0(a0)
    31ac:	8fa40010 	lw	a0,16(sp)
    31b0:	0c001ca5 	jal	7294 <OS_CPU_SR_Restore>
    31b4:	00000000 	nop
    31b8:	a2400000 	sb	zero,0(s2)
    31bc:	8fbf002c 	lw	ra,44(sp)
    31c0:	02001021 	move	v0,s0
    31c4:	8fb30028 	lw	s3,40(sp)
    31c8:	8fb20024 	lw	s2,36(sp)
    31cc:	8fb10020 	lw	s1,32(sp)
    31d0:	8fb0001c 	lw	s0,28(sp)
    31d4:	03e00008 	jr	ra
    31d8:	27bd0030 	addiu	sp,sp,48
    31dc:	8f837854 	lw	v1,30804(gp)
    31e0:	02202021 	move	a0,s1
    31e4:	90620034 	lbu	v0,52(v1)
    31e8:	ac730030 	sw	s3,48(v1)
    31ec:	34420004 	ori	v0,v0,0x4
    31f0:	a0620034 	sb	v0,52(v1)
    31f4:	0c0016fd 	jal	5bf4 <OS_EventTaskWait>
    31f8:	a0600035 	sb	zero,53(v1)
    31fc:	8fa40010 	lw	a0,16(sp)
    3200:	0c001ca5 	jal	7294 <OS_CPU_SR_Restore>
    3204:	00000000 	nop
    3208:	0c001790 	jal	5e40 <OS_Sched>
    320c:	00000000 	nop
    3210:	0c001c9e 	jal	7278 <OS_CPU_SR_Save>
    3214:	00000000 	nop
    3218:	8f847854 	lw	a0,30804(gp)
    321c:	afa20010 	sw	v0,16(sp)
    3220:	90820035 	lbu	v0,53(a0)
    3224:	10400018 	beqz	v0,3288 <OSQPend+0x15c>
    3228:	00000000 	nop
    322c:	10500020 	beq	v0,s0,32b0 <OSQPend+0x184>
    3230:	2402000e 	li	v0,14
    3234:	0c00173b 	jal	5cec <OS_EventTaskRemove>
    3238:	02202821 	move	a1,s1
    323c:	2402000a 	li	v0,10
    3240:	a2420000 	sb	v0,0(s2)
    3244:	00008021 	move	s0,zero
    3248:	8f827854 	lw	v0,30804(gp)
    324c:	a0400034 	sb	zero,52(v0)
    3250:	a0400035 	sb	zero,53(v0)
    3254:	8fa40010 	lw	a0,16(sp)
    3258:	ac400024 	sw	zero,36(v0)
    325c:	ac40001c 	sw	zero,28(v0)
    3260:	0c001ca5 	jal	7294 <OS_CPU_SR_Restore>
    3264:	ac400020 	sw	zero,32(v0)
    3268:	8fbf002c 	lw	ra,44(sp)
    326c:	02001021 	move	v0,s0
    3270:	8fb30028 	lw	s3,40(sp)
    3274:	8fb20024 	lw	s2,36(sp)
    3278:	8fb10020 	lw	s1,32(sp)
    327c:	8fb0001c 	lw	s0,28(sp)
    3280:	03e00008 	jr	ra
    3284:	27bd0030 	addiu	sp,sp,48
    3288:	8c900024 	lw	s0,36(a0)
    328c:	08000c92 	j	3248 <OSQPend+0x11c>
    3290:	a2400000 	sb	zero,0(s2)
    3294:	8cc20004 	lw	v0,4(a2)
    3298:	08000c6b 	j	31ac <OSQPend+0x80>
    329c:	acc20010 	sw	v0,16(a2)
    32a0:	24020001 	li	v0,1
    32a4:	a0c20000 	sb	v0,0(a2)
    32a8:	08000c6f 	j	31bc <OSQPend+0x90>
    32ac:	00008021 	move	s0,zero
    32b0:	a2420000 	sb	v0,0(s2)
    32b4:	08000c92 	j	3248 <OSQPend+0x11c>
    32b8:	00008021 	move	s0,zero
    32bc:	a0c20000 	sb	v0,0(a2)
    32c0:	08000c6f 	j	31bc <OSQPend+0x90>
    32c4:	00008021 	move	s0,zero
    32c8:	a0d00000 	sb	s0,0(a2)
    32cc:	08000c6f 	j	31bc <OSQPend+0x90>
    32d0:	00008021 	move	s0,zero

000032d4 <OSQCreate>:
    32d4:	93827850 	lbu	v0,30800(gp)
    32d8:	27bdffd0 	addiu	sp,sp,-48
    32dc:	afb30028 	sw	s3,40(sp)
    32e0:	afb20024 	sw	s2,36(sp)
    32e4:	afbf002c 	sw	ra,44(sp)
    32e8:	afb10020 	sw	s1,32(sp)
    32ec:	afb0001c 	sw	s0,28(sp)
    32f0:	00809021 	move	s2,a0
    32f4:	30b3ffff 	andi	s3,a1,0xffff
    32f8:	afa00010 	sw	zero,16(sp)
    32fc:	10400009 	beqz	v0,3324 <OSQCreate+0x50>
    3300:	00008821 	move	s1,zero
    3304:	8fbf002c 	lw	ra,44(sp)
    3308:	02201021 	move	v0,s1
    330c:	8fb30028 	lw	s3,40(sp)
    3310:	8fb20024 	lw	s2,36(sp)
    3314:	8fb10020 	lw	s1,32(sp)
    3318:	8fb0001c 	lw	s0,28(sp)
    331c:	03e00008 	jr	ra
    3320:	27bd0030 	addiu	sp,sp,48
    3324:	0c001c9e 	jal	7278 <OS_CPU_SR_Save>
    3328:	00000000 	nop
    332c:	8f91784c 	lw	s1,30796(gp)
    3330:	afa20010 	sw	v0,16(sp)
    3334:	12200028 	beqz	s1,33d8 <OSQCreate+0x104>
    3338:	00000000 	nop
    333c:	8e220004 	lw	v0,4(s1)
    3340:	8fa40010 	lw	a0,16(sp)
    3344:	0c001ca5 	jal	7294 <OS_CPU_SR_Restore>
    3348:	af82784c 	sw	v0,30796(gp)
    334c:	0c001c9e 	jal	7278 <OS_CPU_SR_Save>
    3350:	00000000 	nop
    3354:	8f90783c 	lw	s0,30780(gp)
    3358:	afa20010 	sw	v0,16(sp)
    335c:	12000023 	beqz	s0,33ec <OSQCreate+0x118>
    3360:	8f82784c 	lw	v0,30796(gp)
    3364:	8e020000 	lw	v0,0(s0)
    3368:	8fa40010 	lw	a0,16(sp)
    336c:	0c001ca5 	jal	7294 <OS_CPU_SR_Restore>
    3370:	af82783c 	sw	v0,30780(gp)
    3374:	00131080 	sll	v0,s3,0x2
    3378:	02421021 	addu	v0,s2,v0
    337c:	ae020008 	sw	v0,8(s0)
    3380:	3c020000 	lui	v0,0x0
    3384:	244277a4 	addiu	v0,v0,30628
    3388:	ae220014 	sw	v0,20(s1)
    338c:	24020002 	li	v0,2
    3390:	a6130014 	sh	s3,20(s0)
    3394:	ae120010 	sw	s2,16(s0)
    3398:	a6000016 	sh	zero,22(s0)
    339c:	ae120004 	sw	s2,4(s0)
    33a0:	ae12000c 	sw	s2,12(s0)
    33a4:	ae300004 	sw	s0,4(s1)
    33a8:	a2220000 	sb	v0,0(s1)
    33ac:	a6200008 	sh	zero,8(s1)
    33b0:	0c001761 	jal	5d84 <OS_EventWaitListInit>
    33b4:	02202021 	move	a0,s1
    33b8:	8fbf002c 	lw	ra,44(sp)
    33bc:	02201021 	move	v0,s1
    33c0:	8fb30028 	lw	s3,40(sp)
    33c4:	8fb20024 	lw	s2,36(sp)
    33c8:	8fb10020 	lw	s1,32(sp)
    33cc:	8fb0001c 	lw	s0,28(sp)
    33d0:	03e00008 	jr	ra
    33d4:	27bd0030 	addiu	sp,sp,48
    33d8:	8fa40010 	lw	a0,16(sp)
    33dc:	0c001ca5 	jal	7294 <OS_CPU_SR_Restore>
    33e0:	00000000 	nop
    33e4:	08000cc2 	j	3308 <OSQCreate+0x34>
    33e8:	8fbf002c 	lw	ra,44(sp)
    33ec:	8fa40010 	lw	a0,16(sp)
    33f0:	ae220004 	sw	v0,4(s1)
    33f4:	0c001ca5 	jal	7294 <OS_CPU_SR_Restore>
    33f8:	af91784c 	sw	s1,30796(gp)
    33fc:	08000cc1 	j	3304 <OSQCreate+0x30>
    3400:	00008821 	move	s1,zero

00003404 <OSSemSet>:
    3404:	27bdffd8 	addiu	sp,sp,-40
    3408:	afb20020 	sw	s2,32(sp)
    340c:	afb1001c 	sw	s1,28(sp)
    3410:	afb00018 	sw	s0,24(sp)
    3414:	afbf0024 	sw	ra,36(sp)
    3418:	90830000 	lbu	v1,0(a0)
    341c:	24020003 	li	v0,3
    3420:	00808021 	move	s0,a0
    3424:	00c08821 	move	s1,a2
    3428:	30b2ffff 	andi	s2,a1,0xffff
    342c:	afa00010 	sw	zero,16(sp)
    3430:	10620008 	beq	v1,v0,3454 <OSSemSet+0x50>
    3434:	8fbf0024 	lw	ra,36(sp)
    3438:	24020001 	li	v0,1
    343c:	8fb20020 	lw	s2,32(sp)
    3440:	8fb1001c 	lw	s1,28(sp)
    3444:	8fb00018 	lw	s0,24(sp)
    3448:	a0c20000 	sb	v0,0(a2)
    344c:	03e00008 	jr	ra
    3450:	27bd0028 	addiu	sp,sp,40
    3454:	0c001c9e 	jal	7278 <OS_CPU_SR_Save>
    3458:	00000000 	nop
    345c:	a2200000 	sb	zero,0(s1)
    3460:	96030008 	lhu	v1,8(s0)
    3464:	afa20010 	sw	v0,16(sp)
    3468:	14600004 	bnez	v1,347c <OSSemSet+0x78>
    346c:	00000000 	nop
    3470:	9202000a 	lbu	v0,10(s0)
    3474:	14400009 	bnez	v0,349c <OSSemSet+0x98>
    3478:	24020049 	li	v0,73
    347c:	a6120008 	sh	s2,8(s0)
    3480:	8fa40010 	lw	a0,16(sp)
    3484:	8fbf0024 	lw	ra,36(sp)
    3488:	8fb20020 	lw	s2,32(sp)
    348c:	8fb1001c 	lw	s1,28(sp)
    3490:	8fb00018 	lw	s0,24(sp)
    3494:	08001ca5 	j	7294 <OS_CPU_SR_Restore>
    3498:	27bd0028 	addiu	sp,sp,40
    349c:	08000d20 	j	3480 <OSSemSet+0x7c>
    34a0:	a2220000 	sb	v0,0(s1)

000034a4 <OSSemQuery>:
    34a4:	27bdffd8 	addiu	sp,sp,-40
    34a8:	afb10020 	sw	s1,32(sp)
    34ac:	afb0001c 	sw	s0,28(sp)
    34b0:	afbf0024 	sw	ra,36(sp)
    34b4:	90830000 	lbu	v1,0(a0)
    34b8:	24020003 	li	v0,3
    34bc:	00808021 	move	s0,a0
    34c0:	00a08821 	move	s1,a1
    34c4:	afa00010 	sw	zero,16(sp)
    34c8:	10620006 	beq	v1,v0,34e4 <OSSemQuery+0x40>
    34cc:	8fbf0024 	lw	ra,36(sp)
    34d0:	24020001 	li	v0,1
    34d4:	8fb10020 	lw	s1,32(sp)
    34d8:	8fb0001c 	lw	s0,28(sp)
    34dc:	03e00008 	jr	ra
    34e0:	27bd0028 	addiu	sp,sp,40
    34e4:	0c001c9e 	jal	7278 <OS_CPU_SR_Save>
    34e8:	00000000 	nop
    34ec:	9203000a 	lbu	v1,10(s0)
    34f0:	2605000b 	addiu	a1,s0,11
    34f4:	afa20010 	sw	v0,16(sp)
    34f8:	26240002 	addiu	a0,s1,2
    34fc:	a223000a 	sb	v1,10(s1)
    3500:	00001021 	move	v0,zero
    3504:	24060008 	li	a2,8
    3508:	90a30000 	lbu	v1,0(a1)
    350c:	24420001 	addiu	v0,v0,1
    3510:	304200ff 	andi	v0,v0,0xff
    3514:	a0830000 	sb	v1,0(a0)
    3518:	24a50001 	addiu	a1,a1,1
    351c:	1446fffa 	bne	v0,a2,3508 <OSSemQuery+0x64>
    3520:	24840001 	addiu	a0,a0,1
    3524:	96020008 	lhu	v0,8(s0)
    3528:	8fa40010 	lw	a0,16(sp)
    352c:	0c001ca5 	jal	7294 <OS_CPU_SR_Restore>
    3530:	a6220000 	sh	v0,0(s1)
    3534:	8fbf0024 	lw	ra,36(sp)
    3538:	00001021 	move	v0,zero
    353c:	8fb10020 	lw	s1,32(sp)
    3540:	8fb0001c 	lw	s0,28(sp)
    3544:	03e00008 	jr	ra
    3548:	27bd0028 	addiu	sp,sp,40

0000354c <OSSemAccept>:
    354c:	27bdffd8 	addiu	sp,sp,-40
    3550:	afb10020 	sw	s1,32(sp)
    3554:	afbf0024 	sw	ra,36(sp)
    3558:	afb0001c 	sw	s0,28(sp)
    355c:	90830000 	lbu	v1,0(a0)
    3560:	24020003 	li	v0,3
    3564:	00808821 	move	s1,a0
    3568:	afa00010 	sw	zero,16(sp)
    356c:	10620007 	beq	v1,v0,358c <OSSemAccept+0x40>
    3570:	8fbf0024 	lw	ra,36(sp)
    3574:	00008021 	move	s0,zero
    3578:	02001021 	move	v0,s0
    357c:	8fb10020 	lw	s1,32(sp)
    3580:	8fb0001c 	lw	s0,28(sp)
    3584:	03e00008 	jr	ra
    3588:	27bd0028 	addiu	sp,sp,40
    358c:	0c001c9e 	jal	7278 <OS_CPU_SR_Save>
    3590:	00000000 	nop
    3594:	96300008 	lhu	s0,8(s1)
    3598:	afa20010 	sw	v0,16(sp)
    359c:	12000002 	beqz	s0,35a8 <OSSemAccept+0x5c>
    35a0:	2602ffff 	addiu	v0,s0,-1
    35a4:	a6220008 	sh	v0,8(s1)
    35a8:	8fa40010 	lw	a0,16(sp)
    35ac:	0c001ca5 	jal	7294 <OS_CPU_SR_Restore>
    35b0:	00000000 	nop
    35b4:	8fbf0024 	lw	ra,36(sp)
    35b8:	02001021 	move	v0,s0
    35bc:	8fb10020 	lw	s1,32(sp)
    35c0:	8fb0001c 	lw	s0,28(sp)
    35c4:	03e00008 	jr	ra
    35c8:	27bd0028 	addiu	sp,sp,40

000035cc <OSSemPost>:
    35cc:	27bdffe0 	addiu	sp,sp,-32
    35d0:	afb00018 	sw	s0,24(sp)
    35d4:	afbf001c 	sw	ra,28(sp)
    35d8:	90830000 	lbu	v1,0(a0)
    35dc:	24020003 	li	v0,3
    35e0:	00808021 	move	s0,a0
    35e4:	afa00010 	sw	zero,16(sp)
    35e8:	10620005 	beq	v1,v0,3600 <OSSemPost+0x34>
    35ec:	24020001 	li	v0,1
    35f0:	8fbf001c 	lw	ra,28(sp)
    35f4:	8fb00018 	lw	s0,24(sp)
    35f8:	03e00008 	jr	ra
    35fc:	27bd0020 	addiu	sp,sp,32
    3600:	0c001c9e 	jal	7278 <OS_CPU_SR_Save>
    3604:	00000000 	nop
    3608:	9203000a 	lbu	v1,10(s0)
    360c:	afa20010 	sw	v0,16(sp)
    3610:	14600010 	bnez	v1,3654 <OSSemPost+0x88>
    3614:	00002821 	move	a1,zero
    3618:	96030008 	lhu	v1,8(s0)
    361c:	3402ffff 	li	v0,0xffff
    3620:	10620007 	beq	v1,v0,3640 <OSSemPost+0x74>
    3624:	00000000 	nop
    3628:	24620001 	addiu	v0,v1,1
    362c:	8fa40010 	lw	a0,16(sp)
    3630:	0c001ca5 	jal	7294 <OS_CPU_SR_Restore>
    3634:	a6020008 	sh	v0,8(s0)
    3638:	08000d7c 	j	35f0 <OSSemPost+0x24>
    363c:	00001021 	move	v0,zero
    3640:	8fa40010 	lw	a0,16(sp)
    3644:	0c001ca5 	jal	7294 <OS_CPU_SR_Restore>
    3648:	00000000 	nop
    364c:	08000d7c 	j	35f0 <OSSemPost+0x24>
    3650:	24020033 	li	v0,51
    3654:	24060001 	li	a2,1
    3658:	00003821 	move	a3,zero
    365c:	0c0016ae 	jal	5ab8 <OS_EventTaskRdy>
    3660:	02002021 	move	a0,s0
    3664:	8fa40010 	lw	a0,16(sp)
    3668:	0c001ca5 	jal	7294 <OS_CPU_SR_Restore>
    366c:	00000000 	nop
    3670:	0c001790 	jal	5e40 <OS_Sched>
    3674:	00000000 	nop
    3678:	08000d7c 	j	35f0 <OSSemPost+0x24>
    367c:	00001021 	move	v0,zero

00003680 <OSSemPendAbort>:
    3680:	27bdffd8 	addiu	sp,sp,-40
    3684:	afb20020 	sw	s2,32(sp)
    3688:	afb1001c 	sw	s1,28(sp)
    368c:	afb00018 	sw	s0,24(sp)
    3690:	afbf0024 	sw	ra,36(sp)
    3694:	90830000 	lbu	v1,0(a0)
    3698:	24020003 	li	v0,3
    369c:	00808821 	move	s1,a0
    36a0:	00c09021 	move	s2,a2
    36a4:	30b000ff 	andi	s0,a1,0xff
    36a8:	afa00010 	sw	zero,16(sp)
    36ac:	1062000a 	beq	v1,v0,36d8 <OSSemPendAbort+0x58>
    36b0:	24020001 	li	v0,1
    36b4:	a0c20000 	sb	v0,0(a2)
    36b8:	00008021 	move	s0,zero
    36bc:	8fbf0024 	lw	ra,36(sp)
    36c0:	02001021 	move	v0,s0
    36c4:	8fb20020 	lw	s2,32(sp)
    36c8:	8fb1001c 	lw	s1,28(sp)
    36cc:	8fb00018 	lw	s0,24(sp)
    36d0:	03e00008 	jr	ra
    36d4:	27bd0028 	addiu	sp,sp,40
    36d8:	0c001c9e 	jal	7278 <OS_CPU_SR_Save>
    36dc:	00000000 	nop
    36e0:	9223000a 	lbu	v1,10(s1)
    36e4:	afa20010 	sw	v0,16(sp)
    36e8:	10600022 	beqz	v1,3774 <OSSemPendAbort+0xf4>
    36ec:	24020001 	li	v0,1
    36f0:	12020014 	beq	s0,v0,3744 <OSSemPendAbort+0xc4>
    36f4:	02202021 	move	a0,s1
    36f8:	00002821 	move	a1,zero
    36fc:	24060001 	li	a2,1
    3700:	0c0016ae 	jal	5ab8 <OS_EventTaskRdy>
    3704:	24070002 	li	a3,2
    3708:	24100001 	li	s0,1
    370c:	8fa40010 	lw	a0,16(sp)
    3710:	0c001ca5 	jal	7294 <OS_CPU_SR_Restore>
    3714:	00000000 	nop
    3718:	0c001790 	jal	5e40 <OS_Sched>
    371c:	00000000 	nop
    3720:	2402000e 	li	v0,14
    3724:	a2420000 	sb	v0,0(s2)
    3728:	8fbf0024 	lw	ra,36(sp)
    372c:	02001021 	move	v0,s0
    3730:	8fb20020 	lw	s2,32(sp)
    3734:	8fb1001c 	lw	s1,28(sp)
    3738:	8fb00018 	lw	s0,24(sp)
    373c:	03e00008 	jr	ra
    3740:	27bd0028 	addiu	sp,sp,40
    3744:	00008021 	move	s0,zero
    3748:	02202021 	move	a0,s1
    374c:	00002821 	move	a1,zero
    3750:	24060001 	li	a2,1
    3754:	0c0016ae 	jal	5ab8 <OS_EventTaskRdy>
    3758:	24070002 	li	a3,2
    375c:	9223000a 	lbu	v1,10(s1)
    3760:	26020001 	addiu	v0,s0,1
    3764:	1460fff8 	bnez	v1,3748 <OSSemPendAbort+0xc8>
    3768:	305000ff 	andi	s0,v0,0xff
    376c:	08000dc3 	j	370c <OSSemPendAbort+0x8c>
    3770:	00000000 	nop
    3774:	8fa40010 	lw	a0,16(sp)
    3778:	0c001ca5 	jal	7294 <OS_CPU_SR_Restore>
    377c:	00008021 	move	s0,zero
    3780:	08000daf 	j	36bc <OSSemPendAbort+0x3c>
    3784:	a2400000 	sb	zero,0(s2)

00003788 <OSSemDel>:
    3788:	27bdffd0 	addiu	sp,sp,-48
    378c:	afb20024 	sw	s2,36(sp)
    3790:	afb10020 	sw	s1,32(sp)
    3794:	afb0001c 	sw	s0,28(sp)
    3798:	afbf002c 	sw	ra,44(sp)
    379c:	afb30028 	sw	s3,40(sp)
    37a0:	afa00010 	sw	zero,16(sp)
    37a4:	90830000 	lbu	v1,0(a0)
    37a8:	24020003 	li	v0,3
    37ac:	00808021 	move	s0,a0
    37b0:	00c09021 	move	s2,a2
    37b4:	1062000b 	beq	v1,v0,37e4 <OSSemDel+0x5c>
    37b8:	30b100ff 	andi	s1,a1,0xff
    37bc:	24020001 	li	v0,1
    37c0:	a0c20000 	sb	v0,0(a2)
    37c4:	8fbf002c 	lw	ra,44(sp)
    37c8:	02001021 	move	v0,s0
    37cc:	8fb30028 	lw	s3,40(sp)
    37d0:	8fb20024 	lw	s2,36(sp)
    37d4:	8fb10020 	lw	s1,32(sp)
    37d8:	8fb0001c 	lw	s0,28(sp)
    37dc:	03e00008 	jr	ra
    37e0:	27bd0030 	addiu	sp,sp,48
    37e4:	93827850 	lbu	v0,30800(gp)
    37e8:	1040000a 	beqz	v0,3814 <OSSemDel+0x8c>
    37ec:	2402000f 	li	v0,15
    37f0:	a0c20000 	sb	v0,0(a2)
    37f4:	8fbf002c 	lw	ra,44(sp)
    37f8:	02001021 	move	v0,s0
    37fc:	8fb30028 	lw	s3,40(sp)
    3800:	8fb20024 	lw	s2,36(sp)
    3804:	8fb10020 	lw	s1,32(sp)
    3808:	8fb0001c 	lw	s0,28(sp)
    380c:	03e00008 	jr	ra
    3810:	27bd0030 	addiu	sp,sp,48
    3814:	0c001c9e 	jal	7278 <OS_CPU_SR_Save>
    3818:	00000000 	nop
    381c:	afa20010 	sw	v0,16(sp)
    3820:	9202000a 	lbu	v0,10(s0)
    3824:	1620000f 	bnez	s1,3864 <OSSemDel+0xdc>
    3828:	0002982b 	sltu	s3,zero,v0
    382c:	16600016 	bnez	s3,3888 <OSSemDel+0x100>
    3830:	3c020000 	lui	v0,0x0
    3834:	a2000000 	sb	zero,0(s0)
    3838:	8f83784c 	lw	v1,30796(gp)
    383c:	244277a4 	addiu	v0,v0,30628
    3840:	8fa40010 	lw	a0,16(sp)
    3844:	ae020014 	sw	v0,20(s0)
    3848:	ae030004 	sw	v1,4(s0)
    384c:	a6000008 	sh	zero,8(s0)
    3850:	0c001ca5 	jal	7294 <OS_CPU_SR_Restore>
    3854:	af90784c 	sw	s0,30796(gp)
    3858:	00008021 	move	s0,zero
    385c:	08000df1 	j	37c4 <OSSemDel+0x3c>
    3860:	a2400000 	sb	zero,0(s2)
    3864:	24020001 	li	v0,1
    3868:	1222000d 	beq	s1,v0,38a0 <OSSemDel+0x118>
    386c:	00000000 	nop
    3870:	8fa40010 	lw	a0,16(sp)
    3874:	0c001ca5 	jal	7294 <OS_CPU_SR_Restore>
    3878:	00000000 	nop
    387c:	24020007 	li	v0,7
    3880:	08000df1 	j	37c4 <OSSemDel+0x3c>
    3884:	a2420000 	sb	v0,0(s2)
    3888:	8fa40010 	lw	a0,16(sp)
    388c:	0c001ca5 	jal	7294 <OS_CPU_SR_Restore>
    3890:	00000000 	nop
    3894:	24020049 	li	v0,73
    3898:	08000df1 	j	37c4 <OSSemDel+0x3c>
    389c:	a2420000 	sb	v0,0(s2)
    38a0:	12600008 	beqz	s3,38c4 <OSSemDel+0x13c>
    38a4:	02002021 	move	a0,s0
    38a8:	00002821 	move	a1,zero
    38ac:	24060001 	li	a2,1
    38b0:	0c0016ae 	jal	5ab8 <OS_EventTaskRdy>
    38b4:	00003821 	move	a3,zero
    38b8:	9203000a 	lbu	v1,10(s0)
    38bc:	1460fffa 	bnez	v1,38a8 <OSSemDel+0x120>
    38c0:	02002021 	move	a0,s0
    38c4:	a2000000 	sb	zero,0(s0)
    38c8:	8f83784c 	lw	v1,30796(gp)
    38cc:	3c020000 	lui	v0,0x0
    38d0:	244277a4 	addiu	v0,v0,30628
    38d4:	8fa40010 	lw	a0,16(sp)
    38d8:	ae020014 	sw	v0,20(s0)
    38dc:	ae030004 	sw	v1,4(s0)
    38e0:	a6000008 	sh	zero,8(s0)
    38e4:	0c001ca5 	jal	7294 <OS_CPU_SR_Restore>
    38e8:	af90784c 	sw	s0,30796(gp)
    38ec:	16600004 	bnez	s3,3900 <OSSemDel+0x178>
    38f0:	00000000 	nop
    38f4:	a2400000 	sb	zero,0(s2)
    38f8:	08000df1 	j	37c4 <OSSemDel+0x3c>
    38fc:	00008021 	move	s0,zero
    3900:	0c001790 	jal	5e40 <OS_Sched>
    3904:	00008021 	move	s0,zero
    3908:	08000df1 	j	37c4 <OSSemDel+0x3c>
    390c:	a2400000 	sb	zero,0(s2)

00003910 <OSSemPend>:
    3910:	27bdffd8 	addiu	sp,sp,-40
    3914:	afb20020 	sw	s2,32(sp)
    3918:	afb1001c 	sw	s1,28(sp)
    391c:	afb00018 	sw	s0,24(sp)
    3920:	afbf0024 	sw	ra,36(sp)
    3924:	90830000 	lbu	v1,0(a0)
    3928:	24020003 	li	v0,3
    392c:	00808821 	move	s1,a0
    3930:	00a09021 	move	s2,a1
    3934:	00c08021 	move	s0,a2
    3938:	afa00010 	sw	zero,16(sp)
    393c:	10620008 	beq	v1,v0,3960 <OSSemPend+0x50>
    3940:	24020001 	li	v0,1
    3944:	a0c20000 	sb	v0,0(a2)
    3948:	8fbf0024 	lw	ra,36(sp)
    394c:	8fb20020 	lw	s2,32(sp)
    3950:	8fb1001c 	lw	s1,28(sp)
    3954:	8fb00018 	lw	s0,24(sp)
    3958:	03e00008 	jr	ra
    395c:	27bd0028 	addiu	sp,sp,40
    3960:	93827850 	lbu	v0,30800(gp)
    3964:	1440000a 	bnez	v0,3990 <OSSemPend+0x80>
    3968:	93827804 	lbu	v0,30724(gp)
    396c:	10400010 	beqz	v0,39b0 <OSSemPend+0xa0>
    3970:	8fbf0024 	lw	ra,36(sp)
    3974:	2402000d 	li	v0,13
    3978:	8fb20020 	lw	s2,32(sp)
    397c:	8fb1001c 	lw	s1,28(sp)
    3980:	8fb00018 	lw	s0,24(sp)
    3984:	a0c20000 	sb	v0,0(a2)
    3988:	03e00008 	jr	ra
    398c:	27bd0028 	addiu	sp,sp,40
    3990:	8fbf0024 	lw	ra,36(sp)
    3994:	24020002 	li	v0,2
    3998:	8fb20020 	lw	s2,32(sp)
    399c:	8fb1001c 	lw	s1,28(sp)
    39a0:	8fb00018 	lw	s0,24(sp)
    39a4:	a0c20000 	sb	v0,0(a2)
    39a8:	03e00008 	jr	ra
    39ac:	27bd0028 	addiu	sp,sp,40
    39b0:	0c001c9e 	jal	7278 <OS_CPU_SR_Save>
    39b4:	00000000 	nop
    39b8:	96230008 	lhu	v1,8(s1)
    39bc:	afa20010 	sw	v0,16(sp)
    39c0:	14600021 	bnez	v1,3a48 <OSSemPend+0x138>
    39c4:	02202021 	move	a0,s1
    39c8:	8f837854 	lw	v1,30804(gp)
    39cc:	90620034 	lbu	v0,52(v1)
    39d0:	ac720030 	sw	s2,48(v1)
    39d4:	34420001 	ori	v0,v0,0x1
    39d8:	a0620034 	sb	v0,52(v1)
    39dc:	0c0016fd 	jal	5bf4 <OS_EventTaskWait>
    39e0:	a0600035 	sb	zero,53(v1)
    39e4:	8fa40010 	lw	a0,16(sp)
    39e8:	0c001ca5 	jal	7294 <OS_CPU_SR_Restore>
    39ec:	00000000 	nop
    39f0:	0c001790 	jal	5e40 <OS_Sched>
    39f4:	00000000 	nop
    39f8:	0c001c9e 	jal	7278 <OS_CPU_SR_Save>
    39fc:	00000000 	nop
    3a00:	8f847854 	lw	a0,30804(gp)
    3a04:	afa20010 	sw	v0,16(sp)
    3a08:	90830035 	lbu	v1,53(a0)
    3a0c:	14600014 	bnez	v1,3a60 <OSSemPend+0x150>
    3a10:	24020002 	li	v0,2
    3a14:	a2000000 	sb	zero,0(s0)
    3a18:	8f827854 	lw	v0,30804(gp)
    3a1c:	a0400034 	sb	zero,52(v0)
    3a20:	a0400035 	sb	zero,53(v0)
    3a24:	8fa40010 	lw	a0,16(sp)
    3a28:	8fbf0024 	lw	ra,36(sp)
    3a2c:	8fb20020 	lw	s2,32(sp)
    3a30:	8fb1001c 	lw	s1,28(sp)
    3a34:	8fb00018 	lw	s0,24(sp)
    3a38:	ac400020 	sw	zero,32(v0)
    3a3c:	ac40001c 	sw	zero,28(v0)
    3a40:	08001ca5 	j	7294 <OS_CPU_SR_Restore>
    3a44:	27bd0028 	addiu	sp,sp,40
    3a48:	2462ffff 	addiu	v0,v1,-1
    3a4c:	8fa40010 	lw	a0,16(sp)
    3a50:	0c001ca5 	jal	7294 <OS_CPU_SR_Restore>
    3a54:	a6220008 	sh	v0,8(s1)
    3a58:	08000e52 	j	3948 <OSSemPend+0x38>
    3a5c:	a2000000 	sb	zero,0(s0)
    3a60:	10620006 	beq	v1,v0,3a7c <OSSemPend+0x16c>
    3a64:	2402000e 	li	v0,14
    3a68:	0c00173b 	jal	5cec <OS_EventTaskRemove>
    3a6c:	02202821 	move	a1,s1
    3a70:	2402000a 	li	v0,10
    3a74:	08000e86 	j	3a18 <OSSemPend+0x108>
    3a78:	a2020000 	sb	v0,0(s0)
    3a7c:	08000e86 	j	3a18 <OSSemPend+0x108>
    3a80:	a2020000 	sb	v0,0(s0)

00003a84 <OSSemCreate>:
    3a84:	93827850 	lbu	v0,30800(gp)
    3a88:	27bdffd8 	addiu	sp,sp,-40
    3a8c:	afb10020 	sw	s1,32(sp)
    3a90:	afbf0024 	sw	ra,36(sp)
    3a94:	afb0001c 	sw	s0,28(sp)
    3a98:	3091ffff 	andi	s1,a0,0xffff
    3a9c:	afa00010 	sw	zero,16(sp)
    3aa0:	10400007 	beqz	v0,3ac0 <OSSemCreate+0x3c>
    3aa4:	00008021 	move	s0,zero
    3aa8:	8fbf0024 	lw	ra,36(sp)
    3aac:	02001021 	move	v0,s0
    3ab0:	8fb10020 	lw	s1,32(sp)
    3ab4:	8fb0001c 	lw	s0,28(sp)
    3ab8:	03e00008 	jr	ra
    3abc:	27bd0028 	addiu	sp,sp,40
    3ac0:	0c001c9e 	jal	7278 <OS_CPU_SR_Save>
    3ac4:	00000000 	nop
    3ac8:	8f90784c 	lw	s0,30796(gp)
    3acc:	afa20010 	sw	v0,16(sp)
    3ad0:	12000014 	beqz	s0,3b24 <OSSemCreate+0xa0>
    3ad4:	00000000 	nop
    3ad8:	8e020004 	lw	v0,4(s0)
    3adc:	8fa40010 	lw	a0,16(sp)
    3ae0:	0c001ca5 	jal	7294 <OS_CPU_SR_Restore>
    3ae4:	af82784c 	sw	v0,30796(gp)
    3ae8:	24020003 	li	v0,3
    3aec:	a2020000 	sb	v0,0(s0)
    3af0:	3c020000 	lui	v0,0x0
    3af4:	244277a4 	addiu	v0,v0,30628
    3af8:	a6110008 	sh	s1,8(s0)
    3afc:	ae020014 	sw	v0,20(s0)
    3b00:	ae000004 	sw	zero,4(s0)
    3b04:	0c001761 	jal	5d84 <OS_EventWaitListInit>
    3b08:	02002021 	move	a0,s0
    3b0c:	8fbf0024 	lw	ra,36(sp)
    3b10:	02001021 	move	v0,s0
    3b14:	8fb10020 	lw	s1,32(sp)
    3b18:	8fb0001c 	lw	s0,28(sp)
    3b1c:	03e00008 	jr	ra
    3b20:	27bd0028 	addiu	sp,sp,40
    3b24:	8fa40010 	lw	a0,16(sp)
    3b28:	0c001ca5 	jal	7294 <OS_CPU_SR_Restore>
    3b2c:	00000000 	nop
    3b30:	08000eab 	j	3aac <OSSemCreate+0x28>
    3b34:	8fbf0024 	lw	ra,36(sp)

00003b38 <OS_TaskStkClr>:
    3b38:	30c6ffff 	andi	a2,a2,0xffff
    3b3c:	30c20001 	andi	v0,a2,0x1
    3b40:	10400009 	beqz	v0,3b68 <OS_TaskStkClr+0x30>
    3b44:	30c20002 	andi	v0,a2,0x2
    3b48:	10400007 	beqz	v0,3b68 <OS_TaskStkClr+0x30>
    3b4c:	00000000 	nop
    3b50:	10a00005 	beqz	a1,3b68 <OS_TaskStkClr+0x30>
    3b54:	00000000 	nop
    3b58:	24a5ffff 	addiu	a1,a1,-1
    3b5c:	ac800000 	sw	zero,0(a0)
    3b60:	14a0fffd 	bnez	a1,3b58 <OS_TaskStkClr+0x20>
    3b64:	24840004 	addiu	a0,a0,4
    3b68:	03e00008 	jr	ra
    3b6c:	00000000 	nop

00003b70 <OSTaskRegSet>:
    3b70:	27bdffd0 	addiu	sp,sp,-48
    3b74:	afb30028 	sw	s3,40(sp)
    3b78:	afb20024 	sw	s2,36(sp)
    3b7c:	afb10020 	sw	s1,32(sp)
    3b80:	afb0001c 	sw	s0,28(sp)
    3b84:	afbf002c 	sw	ra,44(sp)
    3b88:	00c09021 	move	s2,a2
    3b8c:	00e09821 	move	s3,a3
    3b90:	309000ff 	andi	s0,a0,0xff
    3b94:	30b100ff 	andi	s1,a1,0xff
    3b98:	afa00010 	sw	zero,16(sp)
    3b9c:	0c001c9e 	jal	7278 <OS_CPU_SR_Save>
    3ba0:	00000000 	nop
    3ba4:	afa20010 	sw	v0,16(sp)
    3ba8:	240200ff 	li	v0,255
    3bac:	12020013 	beq	s0,v0,3bfc <OSTaskRegSet+0x8c>
    3bb0:	3c020001 	lui	v0,0x1
    3bb4:	00101880 	sll	v1,s0,0x2
    3bb8:	244297b4 	addiu	v0,v0,-26700
    3bbc:	00621821 	addu	v1,v1,v0
    3bc0:	8c630000 	lw	v1,0(v1)
    3bc4:	26220014 	addiu	v0,s1,20
    3bc8:	00021080 	sll	v0,v0,0x2
    3bcc:	8fa40010 	lw	a0,16(sp)
    3bd0:	00621021 	addu	v0,v1,v0
    3bd4:	0c001ca5 	jal	7294 <OS_CPU_SR_Restore>
    3bd8:	ac520004 	sw	s2,4(v0)
    3bdc:	a2600000 	sb	zero,0(s3)
    3be0:	8fbf002c 	lw	ra,44(sp)
    3be4:	8fb30028 	lw	s3,40(sp)
    3be8:	8fb20024 	lw	s2,36(sp)
    3bec:	8fb10020 	lw	s1,32(sp)
    3bf0:	8fb0001c 	lw	s0,28(sp)
    3bf4:	03e00008 	jr	ra
    3bf8:	27bd0030 	addiu	sp,sp,48
    3bfc:	8f837854 	lw	v1,30804(gp)
    3c00:	26220014 	addiu	v0,s1,20
    3c04:	00021080 	sll	v0,v0,0x2
    3c08:	8fa40010 	lw	a0,16(sp)
    3c0c:	00621021 	addu	v0,v1,v0
    3c10:	0c001ca5 	jal	7294 <OS_CPU_SR_Restore>
    3c14:	ac520004 	sw	s2,4(v0)
    3c18:	a2600000 	sb	zero,0(s3)
    3c1c:	8fbf002c 	lw	ra,44(sp)
    3c20:	8fb30028 	lw	s3,40(sp)
    3c24:	8fb20024 	lw	s2,36(sp)
    3c28:	8fb10020 	lw	s1,32(sp)
    3c2c:	8fb0001c 	lw	s0,28(sp)
    3c30:	03e00008 	jr	ra
    3c34:	27bd0030 	addiu	sp,sp,48

00003c38 <OSTaskRegGet>:
    3c38:	27bdffd8 	addiu	sp,sp,-40
    3c3c:	afb20020 	sw	s2,32(sp)
    3c40:	afb1001c 	sw	s1,28(sp)
    3c44:	afb00018 	sw	s0,24(sp)
    3c48:	afbf0024 	sw	ra,36(sp)
    3c4c:	00c09021 	move	s2,a2
    3c50:	309000ff 	andi	s0,a0,0xff
    3c54:	30b100ff 	andi	s1,a1,0xff
    3c58:	afa00010 	sw	zero,16(sp)
    3c5c:	0c001c9e 	jal	7278 <OS_CPU_SR_Save>
    3c60:	00000000 	nop
    3c64:	afa20010 	sw	v0,16(sp)
    3c68:	240200ff 	li	v0,255
    3c6c:	12020013 	beq	s0,v0,3cbc <OSTaskRegGet+0x84>
    3c70:	3c020001 	lui	v0,0x1
    3c74:	00101880 	sll	v1,s0,0x2
    3c78:	244297b4 	addiu	v0,v0,-26700
    3c7c:	00621821 	addu	v1,v1,v0
    3c80:	8c630000 	lw	v1,0(v1)
    3c84:	26220014 	addiu	v0,s1,20
    3c88:	8fa40010 	lw	a0,16(sp)
    3c8c:	00021080 	sll	v0,v0,0x2
    3c90:	00621021 	addu	v0,v1,v0
    3c94:	0c001ca5 	jal	7294 <OS_CPU_SR_Restore>
    3c98:	8c500004 	lw	s0,4(v0)
    3c9c:	a2400000 	sb	zero,0(s2)
    3ca0:	8fbf0024 	lw	ra,36(sp)
    3ca4:	02001021 	move	v0,s0
    3ca8:	8fb20020 	lw	s2,32(sp)
    3cac:	8fb1001c 	lw	s1,28(sp)
    3cb0:	8fb00018 	lw	s0,24(sp)
    3cb4:	03e00008 	jr	ra
    3cb8:	27bd0028 	addiu	sp,sp,40
    3cbc:	8f837854 	lw	v1,30804(gp)
    3cc0:	26220014 	addiu	v0,s1,20
    3cc4:	8fa40010 	lw	a0,16(sp)
    3cc8:	00021080 	sll	v0,v0,0x2
    3ccc:	00621021 	addu	v0,v1,v0
    3cd0:	0c001ca5 	jal	7294 <OS_CPU_SR_Restore>
    3cd4:	8c500004 	lw	s0,4(v0)
    3cd8:	a2400000 	sb	zero,0(s2)
    3cdc:	8fbf0024 	lw	ra,36(sp)
    3ce0:	02001021 	move	v0,s0
    3ce4:	8fb20020 	lw	s2,32(sp)
    3ce8:	8fb1001c 	lw	s1,28(sp)
    3cec:	8fb00018 	lw	s0,24(sp)
    3cf0:	03e00008 	jr	ra
    3cf4:	27bd0028 	addiu	sp,sp,40

00003cf8 <OSTaskStkChk>:
    3cf8:	27bdffd8 	addiu	sp,sp,-40
    3cfc:	aca00000 	sw	zero,0(a1)
    3d00:	aca00004 	sw	zero,4(a1)
    3d04:	afb1001c 	sw	s1,28(sp)
    3d08:	afb00018 	sw	s0,24(sp)
    3d0c:	afbf0024 	sw	ra,36(sp)
    3d10:	afb20020 	sw	s2,32(sp)
    3d14:	00a08821 	move	s1,a1
    3d18:	309000ff 	andi	s0,a0,0xff
    3d1c:	afa00010 	sw	zero,16(sp)
    3d20:	0c001c9e 	jal	7278 <OS_CPU_SR_Save>
    3d24:	00000000 	nop
    3d28:	afa20010 	sw	v0,16(sp)
    3d2c:	240200ff 	li	v0,255
    3d30:	1202002f 	beq	s0,v0,3df0 <OSTaskStkChk+0xf8>
    3d34:	3c020001 	lui	v0,0x1
    3d38:	00101880 	sll	v1,s0,0x2
    3d3c:	244297b4 	addiu	v0,v0,-26700
    3d40:	00621821 	addu	v1,v1,v0
    3d44:	8c630000 	lw	v1,0(v1)
    3d48:	10600032 	beqz	v1,3e14 <OSTaskStkChk+0x11c>
    3d4c:	24020001 	li	v0,1
    3d50:	10620030 	beq	v1,v0,3e14 <OSTaskStkChk+0x11c>
    3d54:	00000000 	nop
    3d58:	94620010 	lhu	v0,16(v1)
    3d5c:	30420001 	andi	v0,v0,0x1
    3d60:	1440000b 	bnez	v0,3d90 <OSTaskStkChk+0x98>
    3d64:	00000000 	nop
    3d68:	8fa40010 	lw	a0,16(sp)
    3d6c:	0c001ca5 	jal	7294 <OS_CPU_SR_Restore>
    3d70:	00000000 	nop
    3d74:	8fbf0024 	lw	ra,36(sp)
    3d78:	24020045 	li	v0,69
    3d7c:	8fb20020 	lw	s2,32(sp)
    3d80:	8fb1001c 	lw	s1,28(sp)
    3d84:	8fb00018 	lw	s0,24(sp)
    3d88:	03e00008 	jr	ra
    3d8c:	27bd0028 	addiu	sp,sp,40
    3d90:	8c700008 	lw	s0,8(v1)
    3d94:	8fa40010 	lw	a0,16(sp)
    3d98:	0c001ca5 	jal	7294 <OS_CPU_SR_Restore>
    3d9c:	8c72000c 	lw	s2,12(v1)
    3da0:	8e020000 	lw	v0,0(s0)
    3da4:	14400025 	bnez	v0,3e3c <OSTaskStkChk+0x144>
    3da8:	00001821 	move	v1,zero
    3dac:	26050004 	addiu	a1,s0,4
    3db0:	8ca20000 	lw	v0,0(a1)
    3db4:	24630001 	addiu	v1,v1,1
    3db8:	1040fffd 	beqz	v0,3db0 <OSTaskStkChk+0xb8>
    3dbc:	24a50004 	addiu	a1,a1,4
    3dc0:	00032080 	sll	a0,v1,0x2
    3dc4:	02431023 	subu	v0,s2,v1
    3dc8:	8fbf0024 	lw	ra,36(sp)
    3dcc:	00021080 	sll	v0,v0,0x2
    3dd0:	ae220004 	sw	v0,4(s1)
    3dd4:	ae240000 	sw	a0,0(s1)
    3dd8:	00001021 	move	v0,zero
    3ddc:	8fb20020 	lw	s2,32(sp)
    3de0:	8fb1001c 	lw	s1,28(sp)
    3de4:	8fb00018 	lw	s0,24(sp)
    3de8:	03e00008 	jr	ra
    3dec:	27bd0028 	addiu	sp,sp,40
    3df0:	8f827854 	lw	v0,30804(gp)
    3df4:	90500036 	lbu	s0,54(v0)
    3df8:	3c020001 	lui	v0,0x1
    3dfc:	00101880 	sll	v1,s0,0x2
    3e00:	244297b4 	addiu	v0,v0,-26700
    3e04:	00621821 	addu	v1,v1,v0
    3e08:	8c630000 	lw	v1,0(v1)
    3e0c:	1460ffd0 	bnez	v1,3d50 <OSTaskStkChk+0x58>
    3e10:	24020001 	li	v0,1
    3e14:	8fa40010 	lw	a0,16(sp)
    3e18:	0c001ca5 	jal	7294 <OS_CPU_SR_Restore>
    3e1c:	00000000 	nop
    3e20:	8fbf0024 	lw	ra,36(sp)
    3e24:	24020043 	li	v0,67
    3e28:	8fb20020 	lw	s2,32(sp)
    3e2c:	8fb1001c 	lw	s1,28(sp)
    3e30:	8fb00018 	lw	s0,24(sp)
    3e34:	03e00008 	jr	ra
    3e38:	27bd0028 	addiu	sp,sp,40
    3e3c:	08000f71 	j	3dc4 <OSTaskStkChk+0xcc>
    3e40:	00002021 	move	a0,zero

00003e44 <OSTaskNameSet>:
    3e44:	93827850 	lbu	v0,30800(gp)
    3e48:	27bdffd8 	addiu	sp,sp,-40
    3e4c:	afb20020 	sw	s2,32(sp)
    3e50:	afb1001c 	sw	s1,28(sp)
    3e54:	afb00018 	sw	s0,24(sp)
    3e58:	afbf0024 	sw	ra,36(sp)
    3e5c:	00a09021 	move	s2,a1
    3e60:	00c08821 	move	s1,a2
    3e64:	309000ff 	andi	s0,a0,0xff
    3e68:	afa00010 	sw	zero,16(sp)
    3e6c:	10400008 	beqz	v0,3e90 <OSTaskNameSet+0x4c>
    3e70:	24020012 	li	v0,18
    3e74:	a0c20000 	sb	v0,0(a2)
    3e78:	8fbf0024 	lw	ra,36(sp)
    3e7c:	8fb20020 	lw	s2,32(sp)
    3e80:	8fb1001c 	lw	s1,28(sp)
    3e84:	8fb00018 	lw	s0,24(sp)
    3e88:	03e00008 	jr	ra
    3e8c:	27bd0028 	addiu	sp,sp,40
    3e90:	0c001c9e 	jal	7278 <OS_CPU_SR_Save>
    3e94:	00000000 	nop
    3e98:	afa20010 	sw	v0,16(sp)
    3e9c:	240200ff 	li	v0,255
    3ea0:	12020014 	beq	s0,v0,3ef4 <OSTaskNameSet+0xb0>
    3ea4:	8f827854 	lw	v0,30804(gp)
    3ea8:	3c020001 	lui	v0,0x1
    3eac:	00101880 	sll	v1,s0,0x2
    3eb0:	244297b4 	addiu	v0,v0,-26700
    3eb4:	00621821 	addu	v1,v1,v0
    3eb8:	8c630000 	lw	v1,0(v1)
    3ebc:	1060000f 	beqz	v1,3efc <OSTaskNameSet+0xb8>
    3ec0:	24020001 	li	v0,1
    3ec4:	1062000d 	beq	v1,v0,3efc <OSTaskNameSet+0xb8>
    3ec8:	00000000 	nop
    3ecc:	8fa40010 	lw	a0,16(sp)
    3ed0:	0c001ca5 	jal	7294 <OS_CPU_SR_Restore>
    3ed4:	ac720050 	sw	s2,80(v1)
    3ed8:	a2200000 	sb	zero,0(s1)
    3edc:	8fbf0024 	lw	ra,36(sp)
    3ee0:	8fb20020 	lw	s2,32(sp)
    3ee4:	8fb1001c 	lw	s1,28(sp)
    3ee8:	8fb00018 	lw	s0,24(sp)
    3eec:	03e00008 	jr	ra
    3ef0:	27bd0028 	addiu	sp,sp,40
    3ef4:	08000faa 	j	3ea8 <OSTaskNameSet+0x64>
    3ef8:	90500036 	lbu	s0,54(v0)
    3efc:	8fa40010 	lw	a0,16(sp)
    3f00:	0c001ca5 	jal	7294 <OS_CPU_SR_Restore>
    3f04:	00000000 	nop
    3f08:	24020043 	li	v0,67
    3f0c:	08000f9e 	j	3e78 <OSTaskNameSet+0x34>
    3f10:	a2220000 	sb	v0,0(s1)

00003f14 <OSTaskDelReq>:
    3f14:	27bdffd8 	addiu	sp,sp,-40
    3f18:	afb10020 	sw	s1,32(sp)
    3f1c:	afb0001c 	sw	s0,28(sp)
    3f20:	2411003f 	li	s1,63
    3f24:	309000ff 	andi	s0,a0,0xff
    3f28:	afbf0024 	sw	ra,36(sp)
    3f2c:	afa00010 	sw	zero,16(sp)
    3f30:	12110019 	beq	s0,s1,3f98 <OSTaskDelReq+0x84>
    3f34:	240200ff 	li	v0,255
    3f38:	1202001e 	beq	s0,v0,3fb4 <OSTaskDelReq+0xa0>
    3f3c:	00000000 	nop
    3f40:	0c001c9e 	jal	7278 <OS_CPU_SR_Save>
    3f44:	00000000 	nop
    3f48:	3c030001 	lui	v1,0x1
    3f4c:	00102080 	sll	a0,s0,0x2
    3f50:	246397b4 	addiu	v1,v1,-26700
    3f54:	00832021 	addu	a0,a0,v1
    3f58:	8c840000 	lw	a0,0(a0)
    3f5c:	afa20010 	sw	v0,16(sp)
    3f60:	10800021 	beqz	a0,3fe8 <OSTaskDelReq+0xd4>
    3f64:	24020001 	li	v0,1
    3f68:	10820024 	beq	a0,v0,3ffc <OSTaskDelReq+0xe8>
    3f6c:	00000000 	nop
    3f70:	a091003b 	sb	s1,59(a0)
    3f74:	8fa40010 	lw	a0,16(sp)
    3f78:	0c001ca5 	jal	7294 <OS_CPU_SR_Restore>
    3f7c:	00008021 	move	s0,zero
    3f80:	8fbf0024 	lw	ra,36(sp)
    3f84:	02001021 	move	v0,s0
    3f88:	8fb10020 	lw	s1,32(sp)
    3f8c:	8fb0001c 	lw	s0,28(sp)
    3f90:	03e00008 	jr	ra
    3f94:	27bd0028 	addiu	sp,sp,40
    3f98:	8fbf0024 	lw	ra,36(sp)
    3f9c:	2410003e 	li	s0,62
    3fa0:	02001021 	move	v0,s0
    3fa4:	8fb10020 	lw	s1,32(sp)
    3fa8:	8fb0001c 	lw	s0,28(sp)
    3fac:	03e00008 	jr	ra
    3fb0:	27bd0028 	addiu	sp,sp,40
    3fb4:	0c001c9e 	jal	7278 <OS_CPU_SR_Save>
    3fb8:	00000000 	nop
    3fbc:	afa20010 	sw	v0,16(sp)
    3fc0:	8fa40010 	lw	a0,16(sp)
    3fc4:	8f827854 	lw	v0,30804(gp)
    3fc8:	0c001ca5 	jal	7294 <OS_CPU_SR_Restore>
    3fcc:	9050003b 	lbu	s0,59(v0)
    3fd0:	8fbf0024 	lw	ra,36(sp)
    3fd4:	02001021 	move	v0,s0
    3fd8:	8fb10020 	lw	s1,32(sp)
    3fdc:	8fb0001c 	lw	s0,28(sp)
    3fe0:	03e00008 	jr	ra
    3fe4:	27bd0028 	addiu	sp,sp,40
    3fe8:	8fa40010 	lw	a0,16(sp)
    3fec:	0c001ca5 	jal	7294 <OS_CPU_SR_Restore>
    3ff0:	24100043 	li	s0,67
    3ff4:	08000fe1 	j	3f84 <OSTaskDelReq+0x70>
    3ff8:	8fbf0024 	lw	ra,36(sp)
    3ffc:	8fa40010 	lw	a0,16(sp)
    4000:	0c001ca5 	jal	7294 <OS_CPU_SR_Restore>
    4004:	2410003d 	li	s0,61
    4008:	8fbf0024 	lw	ra,36(sp)
    400c:	02001021 	move	v0,s0
    4010:	8fb10020 	lw	s1,32(sp)
    4014:	8fb0001c 	lw	s0,28(sp)
    4018:	03e00008 	jr	ra
    401c:	27bd0028 	addiu	sp,sp,40

00004020 <OSTaskQuery>:
    4020:	27bdffd8 	addiu	sp,sp,-40
    4024:	afb10020 	sw	s1,32(sp)
    4028:	afb0001c 	sw	s0,28(sp)
    402c:	afbf0024 	sw	ra,36(sp)
    4030:	00a08821 	move	s1,a1
    4034:	309000ff 	andi	s0,a0,0xff
    4038:	afa00010 	sw	zero,16(sp)
    403c:	0c001c9e 	jal	7278 <OS_CPU_SR_Save>
    4040:	00000000 	nop
    4044:	afa20010 	sw	v0,16(sp)
    4048:	240200ff 	li	v0,255
    404c:	12020014 	beq	s0,v0,40a0 <OSTaskQuery+0x80>
    4050:	3c020001 	lui	v0,0x1
    4054:	00101880 	sll	v1,s0,0x2
    4058:	244297b4 	addiu	v0,v0,-26700
    405c:	00621821 	addu	v1,v1,v0
    4060:	8c650000 	lw	a1,0(v1)
    4064:	10a00017 	beqz	a1,40c4 <OSTaskQuery+0xa4>
    4068:	24020001 	li	v0,1
    406c:	10a2001e 	beq	a1,v0,40e8 <OSTaskQuery+0xc8>
    4070:	02202021 	move	a0,s1
    4074:	0c001776 	jal	5dd8 <OS_MemCopy>
    4078:	24060058 	li	a2,88
    407c:	8fa40010 	lw	a0,16(sp)
    4080:	0c001ca5 	jal	7294 <OS_CPU_SR_Restore>
    4084:	00000000 	nop
    4088:	8fbf0024 	lw	ra,36(sp)
    408c:	00001021 	move	v0,zero
    4090:	8fb10020 	lw	s1,32(sp)
    4094:	8fb0001c 	lw	s0,28(sp)
    4098:	03e00008 	jr	ra
    409c:	27bd0028 	addiu	sp,sp,40
    40a0:	8f827854 	lw	v0,30804(gp)
    40a4:	90500036 	lbu	s0,54(v0)
    40a8:	3c020001 	lui	v0,0x1
    40ac:	00101880 	sll	v1,s0,0x2
    40b0:	244297b4 	addiu	v0,v0,-26700
    40b4:	00621821 	addu	v1,v1,v0
    40b8:	8c650000 	lw	a1,0(v1)
    40bc:	14a0ffeb 	bnez	a1,406c <OSTaskQuery+0x4c>
    40c0:	24020001 	li	v0,1
    40c4:	8fa40010 	lw	a0,16(sp)
    40c8:	0c001ca5 	jal	7294 <OS_CPU_SR_Restore>
    40cc:	00000000 	nop
    40d0:	8fbf0024 	lw	ra,36(sp)
    40d4:	24020029 	li	v0,41
    40d8:	8fb10020 	lw	s1,32(sp)
    40dc:	8fb0001c 	lw	s0,28(sp)
    40e0:	03e00008 	jr	ra
    40e4:	27bd0028 	addiu	sp,sp,40
    40e8:	8fa40010 	lw	a0,16(sp)
    40ec:	0c001ca5 	jal	7294 <OS_CPU_SR_Restore>
    40f0:	00000000 	nop
    40f4:	8fbf0024 	lw	ra,36(sp)
    40f8:	24020043 	li	v0,67
    40fc:	8fb10020 	lw	s1,32(sp)
    4100:	8fb0001c 	lw	s0,28(sp)
    4104:	03e00008 	jr	ra
    4108:	27bd0028 	addiu	sp,sp,40

0000410c <OSTaskSuspend>:
    410c:	27bdffe0 	addiu	sp,sp,-32
    4110:	afb00018 	sw	s0,24(sp)
    4114:	afbf001c 	sw	ra,28(sp)
    4118:	309000ff 	andi	s0,a0,0xff
    411c:	afa00010 	sw	zero,16(sp)
    4120:	0c001c9e 	jal	7278 <OS_CPU_SR_Save>
    4124:	00000000 	nop
    4128:	afa20010 	sw	v0,16(sp)
    412c:	240200ff 	li	v0,255
    4130:	12020038 	beq	s0,v0,4214 <OSTaskSuspend+0x108>
    4134:	8f827854 	lw	v0,30804(gp)
    4138:	90430036 	lbu	v1,54(v0)
    413c:	10700027 	beq	v1,s0,41dc <OSTaskSuspend+0xd0>
    4140:	3c020001 	lui	v0,0x1
    4144:	02001821 	move	v1,s0
    4148:	00008021 	move	s0,zero
    414c:	3c020001 	lui	v0,0x1
    4150:	00031880 	sll	v1,v1,0x2
    4154:	244297b4 	addiu	v0,v0,-26700
    4158:	00621821 	addu	v1,v1,v0
    415c:	8c650000 	lw	a1,0(v1)
    4160:	10a00024 	beqz	a1,41f4 <OSTaskSuspend+0xe8>
    4164:	00000000 	nop
    4168:	24020001 	li	v0,1
    416c:	10a20030 	beq	a1,v0,4230 <OSTaskSuspend+0x124>
    4170:	27837844 	addiu	v1,gp,30788
    4174:	90a40038 	lbu	a0,56(a1)
    4178:	00641821 	addu	v1,v1,a0
    417c:	90a20039 	lbu	v0,57(a1)
    4180:	90640000 	lbu	a0,0(v1)
    4184:	00021027 	nor	v0,zero,v0
    4188:	00441024 	and	v0,v0,a0
    418c:	14400006 	bnez	v0,41a8 <OSTaskSuspend+0x9c>
    4190:	a0620000 	sb	v0,0(v1)
    4194:	90a2003a 	lbu	v0,58(a1)
    4198:	93837840 	lbu	v1,30784(gp)
    419c:	00021027 	nor	v0,zero,v0
    41a0:	00431024 	and	v0,v0,v1
    41a4:	a3827840 	sb	v0,30784(gp)
    41a8:	90a20034 	lbu	v0,52(a1)
    41ac:	34420008 	ori	v0,v0,0x8
    41b0:	a0a20034 	sb	v0,52(a1)
    41b4:	8fa40010 	lw	a0,16(sp)
    41b8:	0c001ca5 	jal	7294 <OS_CPU_SR_Restore>
    41bc:	00000000 	nop
    41c0:	16000017 	bnez	s0,4220 <OSTaskSuspend+0x114>
    41c4:	00000000 	nop
    41c8:	8fbf001c 	lw	ra,28(sp)
    41cc:	00001021 	move	v0,zero
    41d0:	8fb00018 	lw	s0,24(sp)
    41d4:	03e00008 	jr	ra
    41d8:	27bd0020 	addiu	sp,sp,32
    41dc:	00031880 	sll	v1,v1,0x2
    41e0:	244297b4 	addiu	v0,v0,-26700
    41e4:	00621821 	addu	v1,v1,v0
    41e8:	8c650000 	lw	a1,0(v1)
    41ec:	14a0ffde 	bnez	a1,4168 <OSTaskSuspend+0x5c>
    41f0:	24100001 	li	s0,1
    41f4:	8fa40010 	lw	a0,16(sp)
    41f8:	0c001ca5 	jal	7294 <OS_CPU_SR_Restore>
    41fc:	00000000 	nop
    4200:	8fbf001c 	lw	ra,28(sp)
    4204:	24020048 	li	v0,72
    4208:	8fb00018 	lw	s0,24(sp)
    420c:	03e00008 	jr	ra
    4210:	27bd0020 	addiu	sp,sp,32
    4214:	24100001 	li	s0,1
    4218:	08001053 	j	414c <OSTaskSuspend+0x40>
    421c:	90430036 	lbu	v1,54(v0)
    4220:	0c001790 	jal	5e40 <OS_Sched>
    4224:	00000000 	nop
    4228:	08001073 	j	41cc <OSTaskSuspend+0xc0>
    422c:	8fbf001c 	lw	ra,28(sp)
    4230:	8fa40010 	lw	a0,16(sp)
    4234:	0c001ca5 	jal	7294 <OS_CPU_SR_Restore>
    4238:	00000000 	nop
    423c:	8fbf001c 	lw	ra,28(sp)
    4240:	24020043 	li	v0,67
    4244:	8fb00018 	lw	s0,24(sp)
    4248:	03e00008 	jr	ra
    424c:	27bd0020 	addiu	sp,sp,32

00004250 <OSTaskResume>:
    4250:	27bdffd8 	addiu	sp,sp,-40
    4254:	afb0001c 	sw	s0,28(sp)
    4258:	afbf0024 	sw	ra,36(sp)
    425c:	309000ff 	andi	s0,a0,0xff
    4260:	afb10020 	sw	s1,32(sp)
    4264:	afa00010 	sw	zero,16(sp)
    4268:	0c001c9e 	jal	7278 <OS_CPU_SR_Save>
    426c:	00108080 	sll	s0,s0,0x2
    4270:	3c030001 	lui	v1,0x1
    4274:	246397b4 	addiu	v1,v1,-26700
    4278:	02038021 	addu	s0,s0,v1
    427c:	8e100000 	lw	s0,0(s0)
    4280:	afa20010 	sw	v0,16(sp)
    4284:	12000030 	beqz	s0,4348 <OSTaskResume+0xf8>
    4288:	24110001 	li	s1,1
    428c:	12110037 	beq	s0,s1,436c <OSTaskResume+0x11c>
    4290:	00000000 	nop
    4294:	92030034 	lbu	v1,52(s0)
    4298:	30620008 	andi	v0,v1,0x8
    429c:	1040001c 	beqz	v0,4310 <OSTaskResume+0xc0>
    42a0:	306200f7 	andi	v0,v1,0xf7
    42a4:	1440003a 	bnez	v0,4390 <OSTaskResume+0x140>
    42a8:	a2020034 	sb	v0,52(s0)
    42ac:	8e020030 	lw	v0,48(s0)
    42b0:	14400020 	bnez	v0,4334 <OSTaskResume+0xe4>
    42b4:	00000000 	nop
    42b8:	9203003a 	lbu	v1,58(s0)
    42bc:	93827840 	lbu	v0,30784(gp)
    42c0:	00431025 	or	v0,v0,v1
    42c4:	a3827840 	sb	v0,30784(gp)
    42c8:	92040038 	lbu	a0,56(s0)
    42cc:	27837844 	addiu	v1,gp,30788
    42d0:	00641821 	addu	v1,v1,a0
    42d4:	92050039 	lbu	a1,57(s0)
    42d8:	90620000 	lbu	v0,0(v1)
    42dc:	8fa40010 	lw	a0,16(sp)
    42e0:	00451025 	or	v0,v0,a1
    42e4:	0c001ca5 	jal	7294 <OS_CPU_SR_Restore>
    42e8:	a0620000 	sb	v0,0(v1)
    42ec:	9382780c 	lbu	v0,30732(gp)
    42f0:	10510030 	beq	v0,s1,43b4 <OSTaskResume+0x164>
    42f4:	00000000 	nop
    42f8:	00001021 	move	v0,zero
    42fc:	8fbf0024 	lw	ra,36(sp)
    4300:	8fb10020 	lw	s1,32(sp)
    4304:	8fb0001c 	lw	s0,28(sp)
    4308:	03e00008 	jr	ra
    430c:	27bd0028 	addiu	sp,sp,40
    4310:	8fa40010 	lw	a0,16(sp)
    4314:	0c001ca5 	jal	7294 <OS_CPU_SR_Restore>
    4318:	00000000 	nop
    431c:	24020044 	li	v0,68
    4320:	8fbf0024 	lw	ra,36(sp)
    4324:	8fb10020 	lw	s1,32(sp)
    4328:	8fb0001c 	lw	s0,28(sp)
    432c:	03e00008 	jr	ra
    4330:	27bd0028 	addiu	sp,sp,40
    4334:	8fa40010 	lw	a0,16(sp)
    4338:	0c001ca5 	jal	7294 <OS_CPU_SR_Restore>
    433c:	00000000 	nop
    4340:	080010bf 	j	42fc <OSTaskResume+0xac>
    4344:	00001021 	move	v0,zero
    4348:	8fa40010 	lw	a0,16(sp)
    434c:	0c001ca5 	jal	7294 <OS_CPU_SR_Restore>
    4350:	00000000 	nop
    4354:	8fbf0024 	lw	ra,36(sp)
    4358:	24020046 	li	v0,70
    435c:	8fb10020 	lw	s1,32(sp)
    4360:	8fb0001c 	lw	s0,28(sp)
    4364:	03e00008 	jr	ra
    4368:	27bd0028 	addiu	sp,sp,40
    436c:	8fa40010 	lw	a0,16(sp)
    4370:	0c001ca5 	jal	7294 <OS_CPU_SR_Restore>
    4374:	00000000 	nop
    4378:	8fbf0024 	lw	ra,36(sp)
    437c:	24020043 	li	v0,67
    4380:	8fb10020 	lw	s1,32(sp)
    4384:	8fb0001c 	lw	s0,28(sp)
    4388:	03e00008 	jr	ra
    438c:	27bd0028 	addiu	sp,sp,40
    4390:	8fa40010 	lw	a0,16(sp)
    4394:	0c001ca5 	jal	7294 <OS_CPU_SR_Restore>
    4398:	00000000 	nop
    439c:	8fbf0024 	lw	ra,36(sp)
    43a0:	00001021 	move	v0,zero
    43a4:	8fb10020 	lw	s1,32(sp)
    43a8:	8fb0001c 	lw	s0,28(sp)
    43ac:	03e00008 	jr	ra
    43b0:	27bd0028 	addiu	sp,sp,40
    43b4:	0c001790 	jal	5e40 <OS_Sched>
    43b8:	00000000 	nop
    43bc:	080010c8 	j	4320 <OSTaskResume+0xd0>
    43c0:	00001021 	move	v0,zero

000043c4 <OSTaskChangePrio>:
    43c4:	27bdffd8 	addiu	sp,sp,-40
    43c8:	afb10020 	sw	s1,32(sp)
    43cc:	afb0001c 	sw	s0,28(sp)
    43d0:	30b100ff 	andi	s1,a1,0xff
    43d4:	309000ff 	andi	s0,a0,0xff
    43d8:	afbf0024 	sw	ra,36(sp)
    43dc:	afa00010 	sw	zero,16(sp)
    43e0:	0c001c9e 	jal	7278 <OS_CPU_SR_Save>
    43e4:	00000000 	nop
    43e8:	3c030001 	lui	v1,0x1
    43ec:	246597b4 	addiu	a1,v1,-26700
    43f0:	00113080 	sll	a2,s1,0x2
    43f4:	00a61821 	addu	v1,a1,a2
    43f8:	8c640000 	lw	a0,0(v1)
    43fc:	afa20010 	sw	v0,16(sp)
    4400:	1080000a 	beqz	a0,442c <OSTaskChangePrio+0x68>
    4404:	240200ff 	li	v0,255
    4408:	8fa40010 	lw	a0,16(sp)
    440c:	0c001ca5 	jal	7294 <OS_CPU_SR_Restore>
    4410:	00000000 	nop
    4414:	24020028 	li	v0,40
    4418:	8fbf0024 	lw	ra,36(sp)
    441c:	8fb10020 	lw	s1,32(sp)
    4420:	8fb0001c 	lw	s0,28(sp)
    4424:	03e00008 	jr	ra
    4428:	27bd0028 	addiu	sp,sp,40
    442c:	12020068 	beq	s0,v0,45d0 <OSTaskChangePrio+0x20c>
    4430:	8f827854 	lw	v0,30804(gp)
    4434:	00101080 	sll	v0,s0,0x2
    4438:	00a22021 	addu	a0,a1,v0
    443c:	8c870000 	lw	a3,0(a0)
    4440:	10e0006d 	beqz	a3,45f8 <OSTaskChangePrio+0x234>
    4444:	24080001 	li	t0,1
    4448:	10e80070 	beq	a3,t0,460c <OSTaskChangePrio+0x248>
    444c:	278f7844 	addiu	t7,gp,30788
    4450:	00a61021 	addu	v0,a1,a2
    4454:	ac800000 	sw	zero,0(a0)
    4458:	ac470000 	sw	a3,0(v0)
    445c:	90ec0038 	lbu	t4,56(a3)
    4460:	01ec3021 	addu	a2,t7,t4
    4464:	90ed0039 	lbu	t5,57(a3)
    4468:	90c50000 	lbu	a1,0(a2)
    446c:	001150c2 	srl	t2,s1,0x3
    4470:	32300007 	andi	s0,s1,0x7
    4474:	02081804 	sllv	v1,t0,s0
    4478:	01481004 	sllv	v0,t0,t2
    447c:	00ad2024 	and	a0,a1,t5
    4480:	304b00ff 	andi	t3,v0,0xff
    4484:	306900ff 	andi	t1,v1,0xff
    4488:	1080000c 	beqz	a0,44bc <OSTaskChangePrio+0xf8>
    448c:	90ee003a 	lbu	t6,58(a3)
    4490:	000d1027 	nor	v0,zero,t5
    4494:	00a21024 	and	v0,a1,v0
    4498:	1040004f 	beqz	v0,45d8 <OSTaskChangePrio+0x214>
    449c:	a0c20000 	sb	v0,0(a2)
    44a0:	93847840 	lbu	a0,30784(gp)
    44a4:	01ea1021 	addu	v0,t7,t2
    44a8:	90430000 	lbu	v1,0(v0)
    44ac:	01642025 	or	a0,t3,a0
    44b0:	01231825 	or	v1,t1,v1
    44b4:	a0430000 	sb	v1,0(v0)
    44b8:	a3847840 	sb	a0,30784(gp)
    44bc:	8ce5001c 	lw	a1,28(a3)
    44c0:	10a0000d 	beqz	a1,44f8 <OSTaskChangePrio+0x134>
    44c4:	00ac2021 	addu	a0,a1,t4
    44c8:	9083000b 	lbu	v1,11(a0)
    44cc:	000d1027 	nor	v0,zero,t5
    44d0:	00431024 	and	v0,v0,v1
    44d4:	10400038 	beqz	v0,45b8 <OSTaskChangePrio+0x1f4>
    44d8:	a082000b 	sb	v0,11(a0)
    44dc:	90a4000a 	lbu	a0,10(a1)
    44e0:	00aa1021 	addu	v0,a1,t2
    44e4:	9043000b 	lbu	v1,11(v0)
    44e8:	01642025 	or	a0,t3,a0
    44ec:	01231825 	or	v1,t1,v1
    44f0:	a043000b 	sb	v1,11(v0)
    44f4:	a0a4000a 	sb	a0,10(a1)
    44f8:	8ce60020 	lw	a2,32(a3)
    44fc:	10c0001c 	beqz	a2,4570 <OSTaskChangePrio+0x1ac>
    4500:	00000000 	nop
    4504:	8cc50000 	lw	a1,0(a2)
    4508:	10a00019 	beqz	a1,4570 <OSTaskChangePrio+0x1ac>
    450c:	000d1027 	nor	v0,zero,t5
    4510:	304800ff 	andi	t0,v0,0xff
    4514:	08001152 	j	4548 <OSTaskChangePrio+0x184>
    4518:	000e6827 	nor	t5,zero,t6
    451c:	90a4000a 	lbu	a0,10(a1)
    4520:	00aa1021 	addu	v0,a1,t2
    4524:	9043000b 	lbu	v1,11(v0)
    4528:	01642025 	or	a0,t3,a0
    452c:	01231825 	or	v1,t1,v1
    4530:	a043000b 	sb	v1,11(v0)
    4534:	a0a4000a 	sb	a0,10(a1)
    4538:	24c60004 	addiu	a2,a2,4
    453c:	8cc50000 	lw	a1,0(a2)
    4540:	10a0000b 	beqz	a1,4570 <OSTaskChangePrio+0x1ac>
    4544:	00000000 	nop
    4548:	00ac1821 	addu	v1,a1,t4
    454c:	9062000b 	lbu	v0,11(v1)
    4550:	01021024 	and	v0,t0,v0
    4554:	1440fff1 	bnez	v0,451c <OSTaskChangePrio+0x158>
    4558:	a062000b 	sb	v0,11(v1)
    455c:	90a4000a 	lbu	a0,10(a1)
    4560:	01a41024 	and	v0,t5,a0
    4564:	a0a2000a 	sb	v0,10(a1)
    4568:	08001148 	j	4520 <OSTaskChangePrio+0x15c>
    456c:	00402021 	move	a0,v0
    4570:	a0e90039 	sb	t1,57(a3)
    4574:	a0f10036 	sb	s1,54(a3)
    4578:	a0ea0038 	sb	t2,56(a3)
    457c:	a0f00037 	sb	s0,55(a3)
    4580:	a0eb003a 	sb	t3,58(a3)
    4584:	8fa40010 	lw	a0,16(sp)
    4588:	0c001ca5 	jal	7294 <OS_CPU_SR_Restore>
    458c:	00000000 	nop
    4590:	9383780c 	lbu	v1,30732(gp)
    4594:	24020001 	li	v0,1
    4598:	10620013 	beq	v1,v0,45e8 <OSTaskChangePrio+0x224>
    459c:	00000000 	nop
    45a0:	00001021 	move	v0,zero
    45a4:	8fbf0024 	lw	ra,36(sp)
    45a8:	8fb10020 	lw	s1,32(sp)
    45ac:	8fb0001c 	lw	s0,28(sp)
    45b0:	03e00008 	jr	ra
    45b4:	27bd0028 	addiu	sp,sp,40
    45b8:	90a4000a 	lbu	a0,10(a1)
    45bc:	000e1027 	nor	v0,zero,t6
    45c0:	00441024 	and	v0,v0,a0
    45c4:	a0a2000a 	sb	v0,10(a1)
    45c8:	08001138 	j	44e0 <OSTaskChangePrio+0x11c>
    45cc:	00402021 	move	a0,v0
    45d0:	0800110d 	j	4434 <OSTaskChangePrio+0x70>
    45d4:	90500036 	lbu	s0,54(v0)
    45d8:	93847840 	lbu	a0,30784(gp)
    45dc:	000e1027 	nor	v0,zero,t6
    45e0:	08001129 	j	44a4 <OSTaskChangePrio+0xe0>
    45e4:	00442024 	and	a0,v0,a0
    45e8:	0c001790 	jal	5e40 <OS_Sched>
    45ec:	00000000 	nop
    45f0:	08001169 	j	45a4 <OSTaskChangePrio+0x1e0>
    45f4:	00001021 	move	v0,zero
    45f8:	8fa40010 	lw	a0,16(sp)
    45fc:	0c001ca5 	jal	7294 <OS_CPU_SR_Restore>
    4600:	00000000 	nop
    4604:	08001106 	j	4418 <OSTaskChangePrio+0x54>
    4608:	24020029 	li	v0,41
    460c:	8fa40010 	lw	a0,16(sp)
    4610:	0c001ca5 	jal	7294 <OS_CPU_SR_Restore>
    4614:	00000000 	nop
    4618:	08001106 	j	4418 <OSTaskChangePrio+0x54>
    461c:	24020043 	li	v0,67

00004620 <OSTaskNameGet>:
    4620:	93827850 	lbu	v0,30800(gp)
    4624:	27bdffd8 	addiu	sp,sp,-40
    4628:	afb20020 	sw	s2,32(sp)
    462c:	afb1001c 	sw	s1,28(sp)
    4630:	afb00018 	sw	s0,24(sp)
    4634:	afbf0024 	sw	ra,36(sp)
    4638:	00a09021 	move	s2,a1
    463c:	00c08821 	move	s1,a2
    4640:	309000ff 	andi	s0,a0,0xff
    4644:	afa00010 	sw	zero,16(sp)
    4648:	1040000a 	beqz	v0,4674 <OSTaskNameGet+0x54>
    464c:	24020011 	li	v0,17
    4650:	a0c20000 	sb	v0,0(a2)
    4654:	00008021 	move	s0,zero
    4658:	8fbf0024 	lw	ra,36(sp)
    465c:	02001021 	move	v0,s0
    4660:	8fb20020 	lw	s2,32(sp)
    4664:	8fb1001c 	lw	s1,28(sp)
    4668:	8fb00018 	lw	s0,24(sp)
    466c:	03e00008 	jr	ra
    4670:	27bd0028 	addiu	sp,sp,40
    4674:	0c001c9e 	jal	7278 <OS_CPU_SR_Save>
    4678:	00000000 	nop
    467c:	afa20010 	sw	v0,16(sp)
    4680:	240200ff 	li	v0,255
    4684:	12020018 	beq	s0,v0,46e8 <OSTaskNameGet+0xc8>
    4688:	8f827854 	lw	v0,30804(gp)
    468c:	3c020001 	lui	v0,0x1
    4690:	00101880 	sll	v1,s0,0x2
    4694:	244297b4 	addiu	v0,v0,-26700
    4698:	00621821 	addu	v1,v1,v0
    469c:	8c630000 	lw	v1,0(v1)
    46a0:	10600013 	beqz	v1,46f0 <OSTaskNameGet+0xd0>
    46a4:	24020001 	li	v0,1
    46a8:	10620011 	beq	v1,v0,46f0 <OSTaskNameGet+0xd0>
    46ac:	00000000 	nop
    46b0:	8c640050 	lw	a0,80(v1)
    46b4:	0c001785 	jal	5e14 <OS_StrLen>
    46b8:	ae440000 	sw	a0,0(s2)
    46bc:	8fa40010 	lw	a0,16(sp)
    46c0:	0c001ca5 	jal	7294 <OS_CPU_SR_Restore>
    46c4:	00408021 	move	s0,v0
    46c8:	a2200000 	sb	zero,0(s1)
    46cc:	8fbf0024 	lw	ra,36(sp)
    46d0:	02001021 	move	v0,s0
    46d4:	8fb20020 	lw	s2,32(sp)
    46d8:	8fb1001c 	lw	s1,28(sp)
    46dc:	8fb00018 	lw	s0,24(sp)
    46e0:	03e00008 	jr	ra
    46e4:	27bd0028 	addiu	sp,sp,40
    46e8:	080011a3 	j	468c <OSTaskNameGet+0x6c>
    46ec:	90500036 	lbu	s0,54(v0)
    46f0:	8fa40010 	lw	a0,16(sp)
    46f4:	0c001ca5 	jal	7294 <OS_CPU_SR_Restore>
    46f8:	00008021 	move	s0,zero
    46fc:	24020043 	li	v0,67
    4700:	08001196 	j	4658 <OSTaskNameGet+0x38>
    4704:	a2220000 	sb	v0,0(s1)

00004708 <OSTaskDel>:
    4708:	93827850 	lbu	v0,30800(gp)
    470c:	27bdffd8 	addiu	sp,sp,-40
    4710:	afb00018 	sw	s0,24(sp)
    4714:	afbf0024 	sw	ra,36(sp)
    4718:	afb20020 	sw	s2,32(sp)
    471c:	afb1001c 	sw	s1,28(sp)
    4720:	309000ff 	andi	s0,a0,0xff
    4724:	afa00010 	sw	zero,16(sp)
    4728:	14400069 	bnez	v0,48d0 <OSTaskDel+0x1c8>
    472c:	2402003f 	li	v0,63
    4730:	12020061 	beq	s0,v0,48b8 <OSTaskDel+0x1b0>
    4734:	2402003e 	li	v0,62
    4738:	0c001c9e 	jal	7278 <OS_CPU_SR_Save>
    473c:	00000000 	nop
    4740:	afa20010 	sw	v0,16(sp)
    4744:	240200ff 	li	v0,255
    4748:	1202006e 	beq	s0,v0,4904 <OSTaskDel+0x1fc>
    474c:	8f827854 	lw	v0,30804(gp)
    4750:	3c020001 	lui	v0,0x1
    4754:	00108880 	sll	s1,s0,0x2
    4758:	245297b4 	addiu	s2,v0,-26700
    475c:	02511821 	addu	v1,s2,s1
    4760:	8c700000 	lw	s0,0(v1)
    4764:	12000069 	beqz	s0,490c <OSTaskDel+0x204>
    4768:	00000000 	nop
    476c:	24020001 	li	v0,1
    4770:	1202006b 	beq	s0,v0,4920 <OSTaskDel+0x218>
    4774:	27837844 	addiu	v1,gp,30788
    4778:	92040038 	lbu	a0,56(s0)
    477c:	00641821 	addu	v1,v1,a0
    4780:	92020039 	lbu	v0,57(s0)
    4784:	90640000 	lbu	a0,0(v1)
    4788:	00021027 	nor	v0,zero,v0
    478c:	00441024 	and	v0,v0,a0
    4790:	14400006 	bnez	v0,47ac <OSTaskDel+0xa4>
    4794:	a0620000 	sb	v0,0(v1)
    4798:	9202003a 	lbu	v0,58(s0)
    479c:	93837840 	lbu	v1,30784(gp)
    47a0:	00021027 	nor	v0,zero,v0
    47a4:	00431024 	and	v0,v0,v1
    47a8:	a3827840 	sb	v0,30784(gp)
    47ac:	8e05001c 	lw	a1,28(s0)
    47b0:	10a00003 	beqz	a1,47c0 <OSTaskDel+0xb8>
    47b4:	00000000 	nop
    47b8:	0c00173b 	jal	5cec <OS_EventTaskRemove>
    47bc:	02002021 	move	a0,s0
    47c0:	8e050020 	lw	a1,32(s0)
    47c4:	10a00003 	beqz	a1,47d4 <OSTaskDel+0xcc>
    47c8:	00000000 	nop
    47cc:	0c00174b 	jal	5d2c <OS_EventTaskRemoveMulti>
    47d0:	02002021 	move	a0,s0
    47d4:	8e040028 	lw	a0,40(s0)
    47d8:	10800003 	beqz	a0,47e8 <OSTaskDel+0xe0>
    47dc:	00000000 	nop
    47e0:	0c000162 	jal	588 <OS_FlagUnlink>
    47e4:	00000000 	nop
    47e8:	a2000034 	sb	zero,52(s0)
    47ec:	a2000035 	sb	zero,53(s0)
    47f0:	93837804 	lbu	v1,30724(gp)
    47f4:	240200ff 	li	v0,255
    47f8:	10620003 	beq	v1,v0,4808 <OSTaskDel+0x100>
    47fc:	ae000030 	sw	zero,48(s0)
    4800:	24620001 	addiu	v0,v1,1
    4804:	a3827804 	sb	v0,30724(gp)
    4808:	8fa40010 	lw	a0,16(sp)
    480c:	0c001ca5 	jal	7294 <OS_CPU_SR_Restore>
    4810:	00000000 	nop
    4814:	0c0016ac 	jal	5ab0 <OS_Dummy>
    4818:	00000000 	nop
    481c:	0c001c9e 	jal	7278 <OS_CPU_SR_Save>
    4820:	00000000 	nop
    4824:	93837804 	lbu	v1,30724(gp)
    4828:	afa20010 	sw	v0,16(sp)
    482c:	1460002f 	bnez	v1,48ec <OSTaskDel+0x1e4>
    4830:	2462ffff 	addiu	v0,v1,-1
    4834:	0c001bac 	jal	6eb0 <OSTaskDelHook>
    4838:	02002021 	move	a0,s0
    483c:	93827831 	lbu	v0,30769(gp)
    4840:	02511821 	addu	v1,s2,s1
    4844:	2442ffff 	addiu	v0,v0,-1
    4848:	a3827831 	sb	v0,30769(gp)
    484c:	ac600000 	sw	zero,0(v1)
    4850:	8e040018 	lw	a0,24(s0)
    4854:	10800037 	beqz	a0,4934 <OSTaskDel+0x22c>
    4858:	00000000 	nop
    485c:	8e020014 	lw	v0,20(s0)
    4860:	ac820014 	sw	v0,20(a0)
    4864:	8e030014 	lw	v1,20(s0)
    4868:	ac640018 	sw	a0,24(v1)
    486c:	8f83782c 	lw	v1,30764(gp)
    4870:	3c020000 	lui	v0,0x0
    4874:	244277a4 	addiu	v0,v0,30628
    4878:	8fa40010 	lw	a0,16(sp)
    487c:	ae030014 	sw	v1,20(s0)
    4880:	ae020050 	sw	v0,80(s0)
    4884:	0c001ca5 	jal	7294 <OS_CPU_SR_Restore>
    4888:	af90782c 	sw	s0,30764(gp)
    488c:	9383780c 	lbu	v1,30732(gp)
    4890:	24020001 	li	v0,1
    4894:	10620017 	beq	v1,v0,48f4 <OSTaskDel+0x1ec>
    4898:	00000000 	nop
    489c:	00001021 	move	v0,zero
    48a0:	8fbf0024 	lw	ra,36(sp)
    48a4:	8fb20020 	lw	s2,32(sp)
    48a8:	8fb1001c 	lw	s1,28(sp)
    48ac:	8fb00018 	lw	s0,24(sp)
    48b0:	03e00008 	jr	ra
    48b4:	27bd0028 	addiu	sp,sp,40
    48b8:	8fbf0024 	lw	ra,36(sp)
    48bc:	8fb20020 	lw	s2,32(sp)
    48c0:	8fb1001c 	lw	s1,28(sp)
    48c4:	8fb00018 	lw	s0,24(sp)
    48c8:	03e00008 	jr	ra
    48cc:	27bd0028 	addiu	sp,sp,40
    48d0:	8fbf0024 	lw	ra,36(sp)
    48d4:	24020040 	li	v0,64
    48d8:	8fb20020 	lw	s2,32(sp)
    48dc:	8fb1001c 	lw	s1,28(sp)
    48e0:	8fb00018 	lw	s0,24(sp)
    48e4:	03e00008 	jr	ra
    48e8:	27bd0028 	addiu	sp,sp,40
    48ec:	0800120d 	j	4834 <OSTaskDel+0x12c>
    48f0:	a3827804 	sb	v0,30724(gp)
    48f4:	0c001790 	jal	5e40 <OS_Sched>
    48f8:	00000000 	nop
    48fc:	08001228 	j	48a0 <OSTaskDel+0x198>
    4900:	00001021 	move	v0,zero
    4904:	080011d4 	j	4750 <OSTaskDel+0x48>
    4908:	90500036 	lbu	s0,54(v0)
    490c:	8fa40010 	lw	a0,16(sp)
    4910:	0c001ca5 	jal	7294 <OS_CPU_SR_Restore>
    4914:	00000000 	nop
    4918:	0800122e 	j	48b8 <OSTaskDel+0x1b0>
    491c:	24020043 	li	v0,67
    4920:	8fa40010 	lw	a0,16(sp)
    4924:	0c001ca5 	jal	7294 <OS_CPU_SR_Restore>
    4928:	00000000 	nop
    492c:	0800122e 	j	48b8 <OSTaskDel+0x1b0>
    4930:	2402003d 	li	v0,61
    4934:	8e020014 	lw	v0,20(s0)
    4938:	ac400018 	sw	zero,24(v0)
    493c:	0800121b 	j	486c <OSTaskDel+0x164>
    4940:	af827818 	sw	v0,30744(gp)

00004944 <OS_TaskReturn>:
    4944:	8f847854 	lw	a0,30804(gp)
    4948:	27bdffe8 	addiu	sp,sp,-24
    494c:	afbf0014 	sw	ra,20(sp)
    4950:	0c001bae 	jal	6eb8 <OSTaskReturnHook>
    4954:	00000000 	nop
    4958:	8fbf0014 	lw	ra,20(sp)
    495c:	240400ff 	li	a0,255
    4960:	080011c2 	j	4708 <OSTaskDel>
    4964:	27bd0018 	addiu	sp,sp,24

00004968 <OSTaskCreateExt>:
    4968:	27bdffb0 	addiu	sp,sp,-80
    496c:	afb60044 	sw	s6,68(sp)
    4970:	afb50040 	sw	s5,64(sp)
    4974:	afb4003c 	sw	s4,60(sp)
    4978:	afb20034 	sw	s2,52(sp)
    497c:	afb10030 	sw	s1,48(sp)
    4980:	afb0002c 	sw	s0,44(sp)
    4984:	afbf004c 	sw	ra,76(sp)
    4988:	afb70048 	sw	s7,72(sp)
    498c:	afb30038 	sw	s3,56(sp)
    4990:	0080a021 	move	s4,a0
    4994:	00a0a821 	move	s5,a1
    4998:	00c0b021 	move	s6,a2
    499c:	30f100ff 	andi	s1,a3,0xff
    49a0:	afa00020 	sw	zero,32(sp)
    49a4:	97b20062 	lhu	s2,98(sp)
    49a8:	0c001c9e 	jal	7278 <OS_CPU_SR_Save>
    49ac:	97b00072 	lhu	s0,114(sp)
    49b0:	93837850 	lbu	v1,30800(gp)
    49b4:	afa20020 	sw	v0,32(sp)
    49b8:	14600016 	bnez	v1,4a14 <OSTaskCreateExt+0xac>
    49bc:	3c020001 	lui	v0,0x1
    49c0:	245797b4 	addiu	s7,v0,-26700
    49c4:	00119880 	sll	s3,s1,0x2
    49c8:	02f31821 	addu	v1,s7,s3
    49cc:	8c620000 	lw	v0,0(v1)
    49d0:	1040001f 	beqz	v0,4a50 <OSTaskCreateExt+0xe8>
    49d4:	24020001 	li	v0,1
    49d8:	8fa40020 	lw	a0,32(sp)
    49dc:	0c001ca5 	jal	7294 <OS_CPU_SR_Restore>
    49e0:	24100028 	li	s0,40
    49e4:	8fbf004c 	lw	ra,76(sp)
    49e8:	02001021 	move	v0,s0
    49ec:	8fb70048 	lw	s7,72(sp)
    49f0:	8fb60044 	lw	s6,68(sp)
    49f4:	8fb50040 	lw	s5,64(sp)
    49f8:	8fb4003c 	lw	s4,60(sp)
    49fc:	8fb30038 	lw	s3,56(sp)
    4a00:	8fb20034 	lw	s2,52(sp)
    4a04:	8fb10030 	lw	s1,48(sp)
    4a08:	8fb0002c 	lw	s0,44(sp)
    4a0c:	03e00008 	jr	ra
    4a10:	27bd0050 	addiu	sp,sp,80
    4a14:	8fa40020 	lw	a0,32(sp)
    4a18:	0c001ca5 	jal	7294 <OS_CPU_SR_Restore>
    4a1c:	2410003c 	li	s0,60
    4a20:	8fbf004c 	lw	ra,76(sp)
    4a24:	02001021 	move	v0,s0
    4a28:	8fb70048 	lw	s7,72(sp)
    4a2c:	8fb60044 	lw	s6,68(sp)
    4a30:	8fb50040 	lw	s5,64(sp)
    4a34:	8fb4003c 	lw	s4,60(sp)
    4a38:	8fb30038 	lw	s3,56(sp)
    4a3c:	8fb20034 	lw	s2,52(sp)
    4a40:	8fb10030 	lw	s1,48(sp)
    4a44:	8fb0002c 	lw	s0,44(sp)
    4a48:	03e00008 	jr	ra
    4a4c:	27bd0050 	addiu	sp,sp,80
    4a50:	8fa40020 	lw	a0,32(sp)
    4a54:	0c001ca5 	jal	7294 <OS_CPU_SR_Restore>
    4a58:	ac620000 	sw	v0,0(v1)
    4a5c:	32020001 	andi	v0,s0,0x1
    4a60:	1040000d 	beqz	v0,4a98 <OSTaskCreateExt+0x130>
    4a64:	02003821 	move	a3,s0
    4a68:	32020002 	andi	v0,s0,0x2
    4a6c:	1040000b 	beqz	v0,4a9c <OSTaskCreateExt+0x134>
    4a70:	02802021 	move	a0,s4
    4a74:	8fa20068 	lw	v0,104(sp)
    4a78:	10400008 	beqz	v0,4a9c <OSTaskCreateExt+0x134>
    4a7c:	00401821 	move	v1,v0
    4a80:	8fa20064 	lw	v0,100(sp)
    4a84:	2463ffff 	addiu	v1,v1,-1
    4a88:	ac400000 	sw	zero,0(v0)
    4a8c:	1460fffd 	bnez	v1,4a84 <OSTaskCreateExt+0x11c>
    4a90:	24420004 	addiu	v0,v0,4
    4a94:	02003821 	move	a3,s0
    4a98:	02802021 	move	a0,s4
    4a9c:	02a02821 	move	a1,s5
    4aa0:	0c001bb4 	jal	6ed0 <OSTaskStkInit>
    4aa4:	02c03021 	move	a2,s6
    4aa8:	00402821 	move	a1,v0
    4aac:	8fa20068 	lw	v0,104(sp)
    4ab0:	8fa60064 	lw	a2,100(sp)
    4ab4:	afa20010 	sw	v0,16(sp)
    4ab8:	8fa2006c 	lw	v0,108(sp)
    4abc:	02202021 	move	a0,s1
    4ac0:	02403821 	move	a3,s2
    4ac4:	afb00018 	sw	s0,24(sp)
    4ac8:	0c00197c 	jal	65f0 <OS_TCBInit>
    4acc:	afa20014 	sw	v0,20(sp)
    4ad0:	14400009 	bnez	v0,4af8 <OSTaskCreateExt+0x190>
    4ad4:	00408021 	move	s0,v0
    4ad8:	9383780c 	lbu	v1,30732(gp)
    4adc:	24020001 	li	v0,1
    4ae0:	1462ffc0 	bne	v1,v0,49e4 <OSTaskCreateExt+0x7c>
    4ae4:	00000000 	nop
    4ae8:	0c001790 	jal	5e40 <OS_Sched>
    4aec:	00000000 	nop
    4af0:	0800127a 	j	49e8 <OSTaskCreateExt+0x80>
    4af4:	8fbf004c 	lw	ra,76(sp)
    4af8:	0c001c9e 	jal	7278 <OS_CPU_SR_Save>
    4afc:	00000000 	nop
    4b00:	afa20020 	sw	v0,32(sp)
    4b04:	8fa40020 	lw	a0,32(sp)
    4b08:	02f31021 	addu	v0,s7,s3
    4b0c:	0c001ca5 	jal	7294 <OS_CPU_SR_Restore>
    4b10:	ac400000 	sw	zero,0(v0)
    4b14:	0800127a 	j	49e8 <OSTaskCreateExt+0x80>
    4b18:	8fbf004c 	lw	ra,76(sp)

00004b1c <OSTaskCreate>:
    4b1c:	27bdffb8 	addiu	sp,sp,-72
    4b20:	afb4003c 	sw	s4,60(sp)
    4b24:	afb30038 	sw	s3,56(sp)
    4b28:	afb20034 	sw	s2,52(sp)
    4b2c:	afb0002c 	sw	s0,44(sp)
    4b30:	afbf0044 	sw	ra,68(sp)
    4b34:	afb50040 	sw	s5,64(sp)
    4b38:	afb10030 	sw	s1,48(sp)
    4b3c:	00809021 	move	s2,a0
    4b40:	00a09821 	move	s3,a1
    4b44:	00c0a021 	move	s4,a2
    4b48:	30f000ff 	andi	s0,a3,0xff
    4b4c:	afa00020 	sw	zero,32(sp)
    4b50:	0c001c9e 	jal	7278 <OS_CPU_SR_Save>
    4b54:	00000000 	nop
    4b58:	93837850 	lbu	v1,30800(gp)
    4b5c:	afa20020 	sw	v0,32(sp)
    4b60:	14600014 	bnez	v1,4bb4 <OSTaskCreate+0x98>
    4b64:	3c030001 	lui	v1,0x1
    4b68:	00101080 	sll	v0,s0,0x2
    4b6c:	246397b4 	addiu	v1,v1,-26700
    4b70:	00438821 	addu	s1,v0,v1
    4b74:	8e240000 	lw	a0,0(s1)
    4b78:	1080001b 	beqz	a0,4be8 <OSTaskCreate+0xcc>
    4b7c:	00000000 	nop
    4b80:	8fa40020 	lw	a0,32(sp)
    4b84:	0c001ca5 	jal	7294 <OS_CPU_SR_Restore>
    4b88:	24100028 	li	s0,40
    4b8c:	8fbf0044 	lw	ra,68(sp)
    4b90:	02001021 	move	v0,s0
    4b94:	8fb50040 	lw	s5,64(sp)
    4b98:	8fb4003c 	lw	s4,60(sp)
    4b9c:	8fb30038 	lw	s3,56(sp)
    4ba0:	8fb20034 	lw	s2,52(sp)
    4ba4:	8fb10030 	lw	s1,48(sp)
    4ba8:	8fb0002c 	lw	s0,44(sp)
    4bac:	03e00008 	jr	ra
    4bb0:	27bd0048 	addiu	sp,sp,72
    4bb4:	8fa40020 	lw	a0,32(sp)
    4bb8:	0c001ca5 	jal	7294 <OS_CPU_SR_Restore>
    4bbc:	2410003c 	li	s0,60
    4bc0:	8fbf0044 	lw	ra,68(sp)
    4bc4:	02001021 	move	v0,s0
    4bc8:	8fb50040 	lw	s5,64(sp)
    4bcc:	8fb4003c 	lw	s4,60(sp)
    4bd0:	8fb30038 	lw	s3,56(sp)
    4bd4:	8fb20034 	lw	s2,52(sp)
    4bd8:	8fb10030 	lw	s1,48(sp)
    4bdc:	8fb0002c 	lw	s0,44(sp)
    4be0:	03e00008 	jr	ra
    4be4:	27bd0048 	addiu	sp,sp,72
    4be8:	8fa40020 	lw	a0,32(sp)
    4bec:	24150001 	li	s5,1
    4bf0:	0c001ca5 	jal	7294 <OS_CPU_SR_Restore>
    4bf4:	ae350000 	sw	s5,0(s1)
    4bf8:	02402021 	move	a0,s2
    4bfc:	02602821 	move	a1,s3
    4c00:	02803021 	move	a2,s4
    4c04:	0c001bb4 	jal	6ed0 <OSTaskStkInit>
    4c08:	00003821 	move	a3,zero
    4c0c:	00402821 	move	a1,v0
    4c10:	02002021 	move	a0,s0
    4c14:	00003021 	move	a2,zero
    4c18:	00003821 	move	a3,zero
    4c1c:	afa00010 	sw	zero,16(sp)
    4c20:	afa00014 	sw	zero,20(sp)
    4c24:	0c00197c 	jal	65f0 <OS_TCBInit>
    4c28:	afa00018 	sw	zero,24(sp)
    4c2c:	14400008 	bnez	v0,4c50 <OSTaskCreate+0x134>
    4c30:	00408021 	move	s0,v0
    4c34:	9382780c 	lbu	v0,30732(gp)
    4c38:	1455ffd4 	bne	v0,s5,4b8c <OSTaskCreate+0x70>
    4c3c:	00000000 	nop
    4c40:	0c001790 	jal	5e40 <OS_Sched>
    4c44:	00000000 	nop
    4c48:	080012e4 	j	4b90 <OSTaskCreate+0x74>
    4c4c:	8fbf0044 	lw	ra,68(sp)
    4c50:	0c001c9e 	jal	7278 <OS_CPU_SR_Save>
    4c54:	00000000 	nop
    4c58:	afa20020 	sw	v0,32(sp)
    4c5c:	8fa40020 	lw	a0,32(sp)
    4c60:	0c001ca5 	jal	7294 <OS_CPU_SR_Restore>
    4c64:	ae200000 	sw	zero,0(s1)
    4c68:	080012e4 	j	4b90 <OSTaskCreate+0x74>
    4c6c:	8fbf0044 	lw	ra,68(sp)

00004c70 <OSTimeSet>:
    4c70:	27bdffe0 	addiu	sp,sp,-32
    4c74:	afbf001c 	sw	ra,28(sp)
    4c78:	afb00018 	sw	s0,24(sp)
    4c7c:	afa00010 	sw	zero,16(sp)
    4c80:	0c001c9e 	jal	7278 <OS_CPU_SR_Save>
    4c84:	00808021 	move	s0,a0
    4c88:	afa20010 	sw	v0,16(sp)
    4c8c:	af90785c 	sw	s0,30812(gp)
    4c90:	8fa40010 	lw	a0,16(sp)
    4c94:	8fbf001c 	lw	ra,28(sp)
    4c98:	8fb00018 	lw	s0,24(sp)
    4c9c:	08001ca5 	j	7294 <OS_CPU_SR_Restore>
    4ca0:	27bd0020 	addiu	sp,sp,32

00004ca4 <OSTimeGet>:
    4ca4:	27bdffe0 	addiu	sp,sp,-32
    4ca8:	afbf001c 	sw	ra,28(sp)
    4cac:	afb00018 	sw	s0,24(sp)
    4cb0:	afa00010 	sw	zero,16(sp)
    4cb4:	0c001c9e 	jal	7278 <OS_CPU_SR_Save>
    4cb8:	00000000 	nop
    4cbc:	afa20010 	sw	v0,16(sp)
    4cc0:	8f90785c 	lw	s0,30812(gp)
    4cc4:	8fa40010 	lw	a0,16(sp)
    4cc8:	0c001ca5 	jal	7294 <OS_CPU_SR_Restore>
    4ccc:	00000000 	nop
    4cd0:	8fbf001c 	lw	ra,28(sp)
    4cd4:	02001021 	move	v0,s0
    4cd8:	8fb00018 	lw	s0,24(sp)
    4cdc:	03e00008 	jr	ra
    4ce0:	27bd0020 	addiu	sp,sp,32

00004ce4 <OSTimeDlyResume>:
    4ce4:	27bdffe0 	addiu	sp,sp,-32
    4ce8:	afb00018 	sw	s0,24(sp)
    4cec:	309000ff 	andi	s0,a0,0xff
    4cf0:	2e02003f 	sltiu	v0,s0,63
    4cf4:	afbf001c 	sw	ra,28(sp)
    4cf8:	afa00010 	sw	zero,16(sp)
    4cfc:	14400005 	bnez	v0,4d14 <OSTimeDlyResume+0x30>
    4d00:	2402002a 	li	v0,42
    4d04:	8fbf001c 	lw	ra,28(sp)
    4d08:	8fb00018 	lw	s0,24(sp)
    4d0c:	03e00008 	jr	ra
    4d10:	27bd0020 	addiu	sp,sp,32
    4d14:	0c001c9e 	jal	7278 <OS_CPU_SR_Save>
    4d18:	00000000 	nop
    4d1c:	3c030001 	lui	v1,0x1
    4d20:	00102080 	sll	a0,s0,0x2
    4d24:	246397b4 	addiu	v1,v1,-26700
    4d28:	00832021 	addu	a0,a0,v1
    4d2c:	8c850000 	lw	a1,0(a0)
    4d30:	afa20010 	sw	v0,16(sp)
    4d34:	10a0001e 	beqz	a1,4db0 <OSTimeDlyResume+0xcc>
    4d38:	24040001 	li	a0,1
    4d3c:	10a4001c 	beq	a1,a0,4db0 <OSTimeDlyResume+0xcc>
    4d40:	00000000 	nop
    4d44:	8ca20030 	lw	v0,48(a1)
    4d48:	10400011 	beqz	v0,4d90 <OSTimeDlyResume+0xac>
    4d4c:	00000000 	nop
    4d50:	90a30034 	lbu	v1,52(a1)
    4d54:	30620037 	andi	v0,v1,0x37
    4d58:	1040001a 	beqz	v0,4dc4 <OSTimeDlyResume+0xe0>
    4d5c:	aca00030 	sw	zero,48(a1)
    4d60:	306200c8 	andi	v0,v1,0xc8
    4d64:	a0a20034 	sb	v0,52(a1)
    4d68:	a0a40035 	sb	a0,53(a1)
    4d6c:	304300ff 	andi	v1,v0,0xff
    4d70:	30620008 	andi	v0,v1,0x8
    4d74:	10400015 	beqz	v0,4dcc <OSTimeDlyResume+0xe8>
    4d78:	00000000 	nop
    4d7c:	8fa40010 	lw	a0,16(sp)
    4d80:	0c001ca5 	jal	7294 <OS_CPU_SR_Restore>
    4d84:	00000000 	nop
    4d88:	08001341 	j	4d04 <OSTimeDlyResume+0x20>
    4d8c:	00001021 	move	v0,zero
    4d90:	8fa40010 	lw	a0,16(sp)
    4d94:	0c001ca5 	jal	7294 <OS_CPU_SR_Restore>
    4d98:	00000000 	nop
    4d9c:	8fbf001c 	lw	ra,28(sp)
    4da0:	24020050 	li	v0,80
    4da4:	8fb00018 	lw	s0,24(sp)
    4da8:	03e00008 	jr	ra
    4dac:	27bd0020 	addiu	sp,sp,32
    4db0:	8fa40010 	lw	a0,16(sp)
    4db4:	0c001ca5 	jal	7294 <OS_CPU_SR_Restore>
    4db8:	00000000 	nop
    4dbc:	08001341 	j	4d04 <OSTimeDlyResume+0x20>
    4dc0:	24020043 	li	v0,67
    4dc4:	0800135c 	j	4d70 <OSTimeDlyResume+0x8c>
    4dc8:	a0a00035 	sb	zero,53(a1)
    4dcc:	90a3003a 	lbu	v1,58(a1)
    4dd0:	93827840 	lbu	v0,30784(gp)
    4dd4:	00431025 	or	v0,v0,v1
    4dd8:	a3827840 	sb	v0,30784(gp)
    4ddc:	90a40038 	lbu	a0,56(a1)
    4de0:	27837844 	addiu	v1,gp,30788
    4de4:	00641821 	addu	v1,v1,a0
    4de8:	90a50039 	lbu	a1,57(a1)
    4dec:	90620000 	lbu	v0,0(v1)
    4df0:	8fa40010 	lw	a0,16(sp)
    4df4:	00451025 	or	v0,v0,a1
    4df8:	0c001ca5 	jal	7294 <OS_CPU_SR_Restore>
    4dfc:	a0620000 	sb	v0,0(v1)
    4e00:	0c001790 	jal	5e40 <OS_Sched>
    4e04:	00000000 	nop
    4e08:	08001341 	j	4d04 <OSTimeDlyResume+0x20>
    4e0c:	00001021 	move	v0,zero

00004e10 <OSTimeDly>:
    4e10:	93827850 	lbu	v0,30800(gp)
    4e14:	27bdffe0 	addiu	sp,sp,-32
    4e18:	afb00018 	sw	s0,24(sp)
    4e1c:	afbf001c 	sw	ra,28(sp)
    4e20:	00808021 	move	s0,a0
    4e24:	afa00010 	sw	zero,16(sp)
    4e28:	14400005 	bnez	v0,4e40 <OSTimeDly+0x30>
    4e2c:	93827804 	lbu	v0,30724(gp)
    4e30:	14400004 	bnez	v0,4e44 <OSTimeDly+0x34>
    4e34:	8fbf001c 	lw	ra,28(sp)
    4e38:	14800005 	bnez	a0,4e50 <OSTimeDly+0x40>
    4e3c:	00000000 	nop
    4e40:	8fbf001c 	lw	ra,28(sp)
    4e44:	8fb00018 	lw	s0,24(sp)
    4e48:	03e00008 	jr	ra
    4e4c:	27bd0020 	addiu	sp,sp,32
    4e50:	0c001c9e 	jal	7278 <OS_CPU_SR_Save>
    4e54:	00000000 	nop
    4e58:	8f857854 	lw	a1,30804(gp)
    4e5c:	afa20010 	sw	v0,16(sp)
    4e60:	90a40038 	lbu	a0,56(a1)
    4e64:	27837844 	addiu	v1,gp,30788
    4e68:	00641821 	addu	v1,v1,a0
    4e6c:	90a20039 	lbu	v0,57(a1)
    4e70:	90640000 	lbu	a0,0(v1)
    4e74:	00021027 	nor	v0,zero,v0
    4e78:	00441024 	and	v0,v0,a0
    4e7c:	14400006 	bnez	v0,4e98 <OSTimeDly+0x88>
    4e80:	a0620000 	sb	v0,0(v1)
    4e84:	90a2003a 	lbu	v0,58(a1)
    4e88:	93837840 	lbu	v1,30784(gp)
    4e8c:	00021027 	nor	v0,zero,v0
    4e90:	00431024 	and	v0,v0,v1
    4e94:	a3827840 	sb	v0,30784(gp)
    4e98:	8fa40010 	lw	a0,16(sp)
    4e9c:	0c001ca5 	jal	7294 <OS_CPU_SR_Restore>
    4ea0:	acb00030 	sw	s0,48(a1)
    4ea4:	8fbf001c 	lw	ra,28(sp)
    4ea8:	8fb00018 	lw	s0,24(sp)
    4eac:	08001790 	j	5e40 <OS_Sched>
    4eb0:	27bd0020 	addiu	sp,sp,32

00004eb4 <OSTimeDlyHMSM>:
    4eb4:	93827850 	lbu	v0,30800(gp)
    4eb8:	27bdffe8 	addiu	sp,sp,-24
    4ebc:	30a300ff 	andi	v1,a1,0xff
    4ec0:	afbf0014 	sw	ra,20(sp)
    4ec4:	308400ff 	andi	a0,a0,0xff
    4ec8:	30c800ff 	andi	t0,a2,0xff
    4ecc:	14400027 	bnez	v0,4f6c <OSTimeDlyHMSM+0xb8>
    4ed0:	30e5ffff 	andi	a1,a3,0xffff
    4ed4:	93827804 	lbu	v0,30724(gp)
    4ed8:	10400004 	beqz	v0,4eec <OSTimeDlyHMSM+0x38>
    4edc:	8fbf0014 	lw	ra,20(sp)
    4ee0:	24020032 	li	v0,50
    4ee4:	03e00008 	jr	ra
    4ee8:	27bd0018 	addiu	sp,sp,24
    4eec:	00041100 	sll	v0,a0,0x4
    4ef0:	00043200 	sll	a2,a0,0x8
    4ef4:	00c23023 	subu	a2,a2,v0
    4ef8:	00053900 	sll	a3,a1,0x4
    4efc:	00032180 	sll	a0,v1,0x6
    4f00:	00052880 	sll	a1,a1,0x2
    4f04:	00031880 	sll	v1,v1,0x2
    4f08:	00a72821 	addu	a1,a1,a3
    4f0c:	00832023 	subu	a0,a0,v1
    4f10:	00061100 	sll	v0,a2,0x4
    4f14:	00461023 	subu	v0,v0,a2
    4f18:	00882021 	addu	a0,a0,t0
    4f1c:	00051880 	sll	v1,a1,0x2
    4f20:	00822021 	addu	a0,a0,v0
    4f24:	00a32821 	addu	a1,a1,v1
    4f28:	3c021062 	lui	v0,0x1062
    4f2c:	34424dd3 	ori	v0,v0,0x4dd3
    4f30:	24a501f4 	addiu	a1,a1,500
    4f34:	00a20019 	multu	a1,v0
    4f38:	00041900 	sll	v1,a0,0x4
    4f3c:	00042080 	sll	a0,a0,0x2
    4f40:	00832021 	addu	a0,a0,v1
    4f44:	00002810 	mfhi	a1
    4f48:	00041880 	sll	v1,a0,0x2
    4f4c:	00832021 	addu	a0,a0,v1
    4f50:	00052982 	srl	a1,a1,0x6
    4f54:	0c001384 	jal	4e10 <OSTimeDly>
    4f58:	00a42021 	addu	a0,a1,a0
    4f5c:	8fbf0014 	lw	ra,20(sp)
    4f60:	00001021 	move	v0,zero
    4f64:	03e00008 	jr	ra
    4f68:	27bd0018 	addiu	sp,sp,24
    4f6c:	8fbf0014 	lw	ra,20(sp)
    4f70:	24020055 	li	v0,85
    4f74:	03e00008 	jr	ra
    4f78:	27bd0018 	addiu	sp,sp,24

00004f7c <OSTmr_Link>:
    4f7c:	24020003 	li	v0,3
    4f80:	30a500ff 	andi	a1,a1,0xff
    4f84:	24030001 	li	v1,1
    4f88:	10a30004 	beq	a1,v1,4f9c <OSTmr_Link+0x20>
    4f8c:	a0820025 	sb	v0,37(a0)
    4f90:	8c830018 	lw	v1,24(a0)
    4f94:	14600016 	bnez	v1,4ff0 <OSTmr_Link+0x74>
    4f98:	8f827858 	lw	v0,30808(gp)
    4f9c:	8c83001c 	lw	v1,28(a0)
    4fa0:	8f827858 	lw	v0,30808(gp)
    4fa4:	00431021 	addu	v0,v0,v1
    4fa8:	ac820014 	sw	v0,20(a0)
    4fac:	8c830014 	lw	v1,20(a0)
    4fb0:	3c020001 	lui	v0,0x1
    4fb4:	30630007 	andi	v1,v1,0x7
    4fb8:	000318c0 	sll	v1,v1,0x3
    4fbc:	2442854c 	addiu	v0,v0,-31412
    4fc0:	00432821 	addu	a1,v0,v1
    4fc4:	8ca30000 	lw	v1,0(a1)
    4fc8:	10600014 	beqz	v1,501c <OSTmr_Link+0xa0>
    4fcc:	24020001 	li	v0,1
    4fd0:	94a20004 	lhu	v0,4(a1)
    4fd4:	ac640010 	sw	a0,16(v1)
    4fd8:	24420001 	addiu	v0,v0,1
    4fdc:	a4a20004 	sh	v0,4(a1)
    4fe0:	aca40000 	sw	a0,0(a1)
    4fe4:	ac83000c 	sw	v1,12(a0)
    4fe8:	03e00008 	jr	ra
    4fec:	ac800010 	sw	zero,16(a0)
    4ff0:	00431021 	addu	v0,v0,v1
    4ff4:	ac820014 	sw	v0,20(a0)
    4ff8:	8c830014 	lw	v1,20(a0)
    4ffc:	3c020001 	lui	v0,0x1
    5000:	30630007 	andi	v1,v1,0x7
    5004:	000318c0 	sll	v1,v1,0x3
    5008:	2442854c 	addiu	v0,v0,-31412
    500c:	00432821 	addu	a1,v0,v1
    5010:	8ca30000 	lw	v1,0(a1)
    5014:	1460ffee 	bnez	v1,4fd0 <OSTmr_Link+0x54>
    5018:	24020001 	li	v0,1
    501c:	a4a20004 	sh	v0,4(a1)
    5020:	aca40000 	sw	a0,0(a1)
    5024:	ac80000c 	sw	zero,12(a0)
    5028:	03e00008 	jr	ra
    502c:	ac800010 	sw	zero,16(a0)

00005030 <OSTmr_Unlink>:
    5030:	8c820014 	lw	v0,20(a0)
    5034:	3c030001 	lui	v1,0x1
    5038:	30420007 	andi	v0,v0,0x7
    503c:	000210c0 	sll	v0,v0,0x3
    5040:	2463854c 	addiu	v1,v1,-31412
    5044:	00623021 	addu	a2,v1,v0
    5048:	00802821 	move	a1,a0
    504c:	8cc40000 	lw	a0,0(a2)
    5050:	1085000e 	beq	a0,a1,508c <OSTmr_Unlink+0x5c>
    5054:	00000000 	nop
    5058:	8ca30010 	lw	v1,16(a1)
    505c:	8ca2000c 	lw	v0,12(a1)
    5060:	10400002 	beqz	v0,506c <OSTmr_Unlink+0x3c>
    5064:	ac62000c 	sw	v0,12(v1)
    5068:	ac430010 	sw	v1,16(v0)
    506c:	24030001 	li	v1,1
    5070:	a0a30025 	sb	v1,37(a1)
    5074:	94c20004 	lhu	v0,4(a2)
    5078:	aca00010 	sw	zero,16(a1)
    507c:	2442ffff 	addiu	v0,v0,-1
    5080:	a4c20004 	sh	v0,4(a2)
    5084:	03e00008 	jr	ra
    5088:	aca0000c 	sw	zero,12(a1)
    508c:	8ca2000c 	lw	v0,12(a1)
    5090:	1040fff6 	beqz	v0,506c <OSTmr_Unlink+0x3c>
    5094:	acc20000 	sw	v0,0(a2)
    5098:	24030001 	li	v1,1
    509c:	a0a30025 	sb	v1,37(a1)
    50a0:	ac400010 	sw	zero,16(v0)
    50a4:	94c20004 	lhu	v0,4(a2)
    50a8:	aca00010 	sw	zero,16(a1)
    50ac:	2442ffff 	addiu	v0,v0,-1
    50b0:	a4c20004 	sh	v0,4(a2)
    50b4:	03e00008 	jr	ra
    50b8:	aca0000c 	sw	zero,12(a1)

000050bc <OSTmr_Init>:
    50bc:	27bdffc8 	addiu	sp,sp,-56
    50c0:	afb00030 	sw	s0,48(sp)
    50c4:	3c100001 	lui	s0,0x1
    50c8:	260485dc 	addiu	a0,s0,-31268
    50cc:	afbf0034 	sw	ra,52(sp)
    50d0:	0c00176a 	jal	5da8 <OS_MemClr>
    50d4:	24050280 	li	a1,640
    50d8:	3c040001 	lui	a0,0x1
    50dc:	2484854c 	addiu	a0,a0,-31412
    50e0:	0c00176a 	jal	5da8 <OS_MemClr>
    50e4:	24050040 	li	a1,64
    50e8:	3c020000 	lui	v0,0x0
    50ec:	244477a4 	addiu	a0,v0,30628
    50f0:	3c030001 	lui	v1,0x1
    50f4:	3c020001 	lui	v0,0x1
    50f8:	24638604 	addiu	v1,v1,-31228
    50fc:	2442885c 	addiu	v0,v0,-30628
    5100:	24050064 	li	a1,100
    5104:	00803021 	move	a2,a0
    5108:	a065ffd8 	sb	a1,-40(v1)
    510c:	a060fffd 	sb	zero,-3(v1)
    5110:	ac63ffe4 	sw	v1,-28(v1)
    5114:	ac64fff8 	sw	a0,-8(v1)
    5118:	24630028 	addiu	v1,v1,40
    511c:	1443fffa 	bne	v0,v1,5108 <OSTmr_Init+0x4c>
    5120:	00000000 	nop
    5124:	260385dc 	addiu	v1,s0,-31268
    5128:	24020010 	li	v0,16
    512c:	a0650258 	sb	a1,600(v1)
    5130:	ac660278 	sw	a2,632(v1)
    5134:	af837800 	sw	v1,30720(gp)
    5138:	ac600264 	sw	zero,612(v1)
    513c:	24040001 	li	a0,1
    5140:	a7827824 	sh	v0,30756(gp)
    5144:	a060027d 	sb	zero,637(v1)
    5148:	af807858 	sw	zero,30808(gp)
    514c:	0c000ea1 	jal	3a84 <OSSemCreate>
    5150:	a7807814 	sh	zero,30740(gp)
    5154:	00002021 	move	a0,zero
    5158:	27b00028 	addiu	s0,sp,40
    515c:	0c000ea1 	jal	3a84 <OSSemCreate>
    5160:	af827860 	sw	v0,30816(gp)
    5164:	8f847860 	lw	a0,30816(gp)
    5168:	3c050000 	lui	a1,0x0
    516c:	02003021 	move	a2,s0
    5170:	24a577a8 	addiu	a1,a1,30632
    5174:	0c001910 	jal	6440 <OSEventNameSet>
    5178:	af827808 	sw	v0,30728(gp)
    517c:	8f847808 	lw	a0,30728(gp)
    5180:	3c050000 	lui	a1,0x0
    5184:	02003021 	move	a2,s0
    5188:	0c001910 	jal	6440 <OSEventNameSet>
    518c:	24a577bc 	addiu	a1,a1,30652
    5190:	3c020001 	lui	v0,0x1
    5194:	3403fffd 	li	v1,0xfffd
    5198:	24428b34 	addiu	v0,v0,-29900
    519c:	3c040000 	lui	a0,0x0
    51a0:	3c060001 	lui	a2,0x1
    51a4:	afa30010 	sw	v1,16(sp)
    51a8:	afa20014 	sw	v0,20(sp)
    51ac:	24030080 	li	v1,128
    51b0:	248451f8 	addiu	a0,a0,20984
    51b4:	24c68d30 	addiu	a2,a2,-29392
    51b8:	00002821 	move	a1,zero
    51bc:	2407003d 	li	a3,61
    51c0:	24020003 	li	v0,3
    51c4:	afa30018 	sw	v1,24(sp)
    51c8:	afa20020 	sw	v0,32(sp)
    51cc:	0c00125a 	jal	4968 <OSTaskCreateExt>
    51d0:	afa0001c 	sw	zero,28(sp)
    51d4:	3c050000 	lui	a1,0x0
    51d8:	27a60029 	addiu	a2,sp,41
    51dc:	24a577d0 	addiu	a1,a1,30672
    51e0:	0c000f91 	jal	3e44 <OSTaskNameSet>
    51e4:	2404003d 	li	a0,61
    51e8:	8fbf0034 	lw	ra,52(sp)
    51ec:	8fb00030 	lw	s0,48(sp)
    51f0:	03e00008 	jr	ra
    51f4:	27bd0038 	addiu	sp,sp,56

000051f8 <OSTmr_Task>:
    51f8:	27bdffd0 	addiu	sp,sp,-48
    51fc:	3c020001 	lui	v0,0x1
    5200:	afb40028 	sw	s4,40(sp)
    5204:	afb30024 	sw	s3,36(sp)
    5208:	afb20020 	sw	s2,32(sp)
    520c:	afbf002c 	sw	ra,44(sp)
    5210:	afb1001c 	sw	s1,28(sp)
    5214:	afb00018 	sw	s0,24(sp)
    5218:	2454854c 	addiu	s4,v0,-31412
    521c:	27b30010 	addiu	s3,sp,16
    5220:	24120002 	li	s2,2
    5224:	8f847808 	lw	a0,30728(gp)
    5228:	00002821 	move	a1,zero
    522c:	0c000e44 	jal	3910 <OSSemPend>
    5230:	02603021 	move	a2,s3
    5234:	0c0017da 	jal	5f68 <OSSchedLock>
    5238:	00000000 	nop
    523c:	8f837858 	lw	v1,30808(gp)
    5240:	24630001 	addiu	v1,v1,1
    5244:	30620007 	andi	v0,v1,0x7
    5248:	000210c0 	sll	v0,v0,0x3
    524c:	02821021 	addu	v0,s4,v0
    5250:	8c500000 	lw	s0,0(v0)
    5254:	16000006 	bnez	s0,5270 <OSTmr_Task+0x78>
    5258:	af837858 	sw	v1,30808(gp)
    525c:	080014ad 	j	52b4 <OSTmr_Task+0xbc>
    5260:	00000000 	nop
    5264:	12200013 	beqz	s1,52b4 <OSTmr_Task+0xbc>
    5268:	02208021 	move	s0,s1
    526c:	8f837858 	lw	v1,30808(gp)
    5270:	8e020014 	lw	v0,20(s0)
    5274:	1443fffb 	bne	v0,v1,5264 <OSTmr_Task+0x6c>
    5278:	8e11000c 	lw	s1,12(s0)
    527c:	0c00140c 	jal	5030 <OSTmr_Unlink>
    5280:	02002021 	move	a0,s0
    5284:	92020024 	lbu	v0,36(s0)
    5288:	1052000e 	beq	v0,s2,52c4 <OSTmr_Task+0xcc>
    528c:	02002021 	move	a0,s0
    5290:	a2120025 	sb	s2,37(s0)
    5294:	8e020004 	lw	v0,4(s0)
    5298:	1040fff2 	beqz	v0,5264 <OSTmr_Task+0x6c>
    529c:	02002021 	move	a0,s0
    52a0:	8e050008 	lw	a1,8(s0)
    52a4:	0040f809 	jalr	v0
    52a8:	02208021 	move	s0,s1
    52ac:	1620fff0 	bnez	s1,5270 <OSTmr_Task+0x78>
    52b0:	8f837858 	lw	v1,30808(gp)
    52b4:	0c0017bb 	jal	5eec <OSSchedUnlock>
    52b8:	00000000 	nop
    52bc:	0800148a 	j	5228 <OSTmr_Task+0x30>
    52c0:	8f847808 	lw	a0,30728(gp)
    52c4:	0c0013df 	jal	4f7c <OSTmr_Link>
    52c8:	24050001 	li	a1,1
    52cc:	080014a6 	j	5298 <OSTmr_Task+0xa0>
    52d0:	8e020004 	lw	v0,4(s0)

000052d4 <OSTmrStop>:
    52d4:	27bdffd8 	addiu	sp,sp,-40
    52d8:	afb40020 	sw	s4,32(sp)
    52dc:	afb3001c 	sw	s3,28(sp)
    52e0:	afb10014 	sw	s1,20(sp)
    52e4:	afb00010 	sw	s0,16(sp)
    52e8:	afbf0024 	sw	ra,36(sp)
    52ec:	afb20018 	sw	s2,24(sp)
    52f0:	90830000 	lbu	v1,0(a0)
    52f4:	24020064 	li	v0,100
    52f8:	00808821 	move	s1,a0
    52fc:	00c0a021 	move	s4,a2
    5300:	00e09821 	move	s3,a3
    5304:	1062000c 	beq	v1,v0,5338 <OSTmrStop+0x64>
    5308:	30b000ff 	andi	s0,a1,0xff
    530c:	2402ff89 	li	v0,-119
    5310:	a0e20000 	sb	v0,0(a3)
    5314:	00001021 	move	v0,zero
    5318:	8fbf0024 	lw	ra,36(sp)
    531c:	8fb40020 	lw	s4,32(sp)
    5320:	8fb3001c 	lw	s3,28(sp)
    5324:	8fb20018 	lw	s2,24(sp)
    5328:	8fb10014 	lw	s1,20(sp)
    532c:	8fb00010 	lw	s0,16(sp)
    5330:	03e00008 	jr	ra
    5334:	27bd0028 	addiu	sp,sp,40
    5338:	93827850 	lbu	v0,30800(gp)
    533c:	1040000b 	beqz	v0,536c <OSTmrStop+0x98>
    5340:	8fbf0024 	lw	ra,36(sp)
    5344:	2402ff8b 	li	v0,-117
    5348:	a0e20000 	sb	v0,0(a3)
    534c:	8fb40020 	lw	s4,32(sp)
    5350:	00001021 	move	v0,zero
    5354:	8fb3001c 	lw	s3,28(sp)
    5358:	8fb20018 	lw	s2,24(sp)
    535c:	8fb10014 	lw	s1,20(sp)
    5360:	8fb00010 	lw	s0,16(sp)
    5364:	03e00008 	jr	ra
    5368:	27bd0028 	addiu	sp,sp,40
    536c:	0c0017da 	jal	5f68 <OSSchedLock>
    5370:	00000000 	nop
    5374:	92320025 	lbu	s2,37(s1)
    5378:	2e420003 	sltiu	v0,s2,3
    537c:	10400009 	beqz	v0,53a4 <OSTmrStop+0xd0>
    5380:	00000000 	nop
    5384:	12400010 	beqz	s2,53c8 <OSTmrStop+0xf4>
    5388:	00000000 	nop
    538c:	0c0017bb 	jal	5eec <OSSchedUnlock>
    5390:	00000000 	nop
    5394:	2402ff8e 	li	v0,-114
    5398:	a2620000 	sb	v0,0(s3)
    539c:	080014c6 	j	5318 <OSTmrStop+0x44>
    53a0:	24020001 	li	v0,1
    53a4:	24020003 	li	v0,3
    53a8:	1242000d 	beq	s2,v0,53e0 <OSTmrStop+0x10c>
    53ac:	00000000 	nop
    53b0:	0c0017bb 	jal	5eec <OSSchedUnlock>
    53b4:	00000000 	nop
    53b8:	2402ff8d 	li	v0,-115
    53bc:	a2620000 	sb	v0,0(s3)
    53c0:	080014c6 	j	5318 <OSTmrStop+0x44>
    53c4:	00001021 	move	v0,zero
    53c8:	0c0017bb 	jal	5eec <OSSchedUnlock>
    53cc:	00000000 	nop
    53d0:	2402ff87 	li	v0,-121
    53d4:	a2620000 	sb	v0,0(s3)
    53d8:	080014c6 	j	5318 <OSTmrStop+0x44>
    53dc:	00001021 	move	v0,zero
    53e0:	0c00140c 	jal	5030 <OSTmr_Unlink>
    53e4:	02202021 	move	a0,s1
    53e8:	12120013 	beq	s0,s2,5438 <OSTmrStop+0x164>
    53ec:	a2600000 	sb	zero,0(s3)
    53f0:	24020004 	li	v0,4
    53f4:	12020009 	beq	s0,v0,541c <OSTmrStop+0x148>
    53f8:	00000000 	nop
    53fc:	12000003 	beqz	s0,540c <OSTmrStop+0x138>
    5400:	00000000 	nop
    5404:	2402ff84 	li	v0,-124
    5408:	a2620000 	sb	v0,0(s3)
    540c:	0c0017bb 	jal	5eec <OSSchedUnlock>
    5410:	00000000 	nop
    5414:	080014c6 	j	5318 <OSTmrStop+0x44>
    5418:	24020001 	li	v0,1
    541c:	8e220004 	lw	v0,4(s1)
    5420:	1040000d 	beqz	v0,5458 <OSTmrStop+0x184>
    5424:	02202021 	move	a0,s1
    5428:	0040f809 	jalr	v0
    542c:	02802821 	move	a1,s4
    5430:	08001503 	j	540c <OSTmrStop+0x138>
    5434:	00000000 	nop
    5438:	8e220004 	lw	v0,4(s1)
    543c:	10400006 	beqz	v0,5458 <OSTmrStop+0x184>
    5440:	00000000 	nop
    5444:	8e250008 	lw	a1,8(s1)
    5448:	0040f809 	jalr	v0
    544c:	02202021 	move	a0,s1
    5450:	08001503 	j	540c <OSTmrStop+0x138>
    5454:	00000000 	nop
    5458:	2402ff8f 	li	v0,-113
    545c:	08001503 	j	540c <OSTmrStop+0x138>
    5460:	a2620000 	sb	v0,0(s3)

00005464 <OSTmrStart>:
    5464:	27bdffe0 	addiu	sp,sp,-32
    5468:	afb10018 	sw	s1,24(sp)
    546c:	afb00014 	sw	s0,20(sp)
    5470:	afbf001c 	sw	ra,28(sp)
    5474:	90830000 	lbu	v1,0(a0)
    5478:	24020064 	li	v0,100
    547c:	00808021 	move	s0,a0
    5480:	10620009 	beq	v1,v0,54a8 <OSTmrStart+0x44>
    5484:	00a08821 	move	s1,a1
    5488:	2402ff89 	li	v0,-119
    548c:	a0a20000 	sb	v0,0(a1)
    5490:	00001021 	move	v0,zero
    5494:	8fbf001c 	lw	ra,28(sp)
    5498:	8fb10018 	lw	s1,24(sp)
    549c:	8fb00014 	lw	s0,20(sp)
    54a0:	03e00008 	jr	ra
    54a4:	27bd0020 	addiu	sp,sp,32
    54a8:	93827850 	lbu	v0,30800(gp)
    54ac:	10400008 	beqz	v0,54d0 <OSTmrStart+0x6c>
    54b0:	2402ff8b 	li	v0,-117
    54b4:	a0a20000 	sb	v0,0(a1)
    54b8:	8fbf001c 	lw	ra,28(sp)
    54bc:	00001021 	move	v0,zero
    54c0:	8fb10018 	lw	s1,24(sp)
    54c4:	8fb00014 	lw	s0,20(sp)
    54c8:	03e00008 	jr	ra
    54cc:	27bd0020 	addiu	sp,sp,32
    54d0:	0c0017da 	jal	5f68 <OSSchedLock>
    54d4:	00000000 	nop
    54d8:	92030025 	lbu	v1,37(s0)
    54dc:	2c620003 	sltiu	v0,v1,3
    54e0:	1040000a 	beqz	v0,550c <OSTmrStart+0xa8>
    54e4:	00000000 	nop
    54e8:	10600011 	beqz	v1,5530 <OSTmrStart+0xcc>
    54ec:	02002021 	move	a0,s0
    54f0:	0c0013df 	jal	4f7c <OSTmr_Link>
    54f4:	00002821 	move	a1,zero
    54f8:	0c0017bb 	jal	5eec <OSSchedUnlock>
    54fc:	00000000 	nop
    5500:	a2200000 	sb	zero,0(s1)
    5504:	08001525 	j	5494 <OSTmrStart+0x30>
    5508:	24020001 	li	v0,1
    550c:	24020003 	li	v0,3
    5510:	1062000d 	beq	v1,v0,5548 <OSTmrStart+0xe4>
    5514:	00000000 	nop
    5518:	0c0017bb 	jal	5eec <OSSchedUnlock>
    551c:	00000000 	nop
    5520:	2402ff8d 	li	v0,-115
    5524:	a2220000 	sb	v0,0(s1)
    5528:	08001525 	j	5494 <OSTmrStart+0x30>
    552c:	00001021 	move	v0,zero
    5530:	0c0017bb 	jal	5eec <OSSchedUnlock>
    5534:	00000000 	nop
    5538:	2402ff87 	li	v0,-121
    553c:	a2220000 	sb	v0,0(s1)
    5540:	08001525 	j	5494 <OSTmrStart+0x30>
    5544:	00001021 	move	v0,zero
    5548:	0c00140c 	jal	5030 <OSTmr_Unlink>
    554c:	02002021 	move	a0,s0
    5550:	0800153c 	j	54f0 <OSTmrStart+0x8c>
    5554:	02002021 	move	a0,s0

00005558 <OSTmrStateGet>:
    5558:	90830000 	lbu	v1,0(a0)
    555c:	27bdffe0 	addiu	sp,sp,-32
    5560:	24020064 	li	v0,100
    5564:	afb10018 	sw	s1,24(sp)
    5568:	afb00014 	sw	s0,20(sp)
    556c:	afbf001c 	sw	ra,28(sp)
    5570:	00808021 	move	s0,a0
    5574:	1062000a 	beq	v1,v0,55a0 <OSTmrStateGet+0x48>
    5578:	00a08821 	move	s1,a1
    557c:	8fbf001c 	lw	ra,28(sp)
    5580:	2402ff89 	li	v0,-119
    5584:	00008021 	move	s0,zero
    5588:	a0a20000 	sb	v0,0(a1)
    558c:	8fb10018 	lw	s1,24(sp)
    5590:	02001021 	move	v0,s0
    5594:	8fb00014 	lw	s0,20(sp)
    5598:	03e00008 	jr	ra
    559c:	27bd0020 	addiu	sp,sp,32
    55a0:	93827850 	lbu	v0,30800(gp)
    55a4:	10400009 	beqz	v0,55cc <OSTmrStateGet+0x74>
    55a8:	8fbf001c 	lw	ra,28(sp)
    55ac:	2402ff8b 	li	v0,-117
    55b0:	00008021 	move	s0,zero
    55b4:	a0a20000 	sb	v0,0(a1)
    55b8:	8fb10018 	lw	s1,24(sp)
    55bc:	02001021 	move	v0,s0
    55c0:	8fb00014 	lw	s0,20(sp)
    55c4:	03e00008 	jr	ra
    55c8:	27bd0020 	addiu	sp,sp,32
    55cc:	0c0017da 	jal	5f68 <OSSchedLock>
    55d0:	00000000 	nop
    55d4:	92100025 	lbu	s0,37(s0)
    55d8:	2e020004 	sltiu	v0,s0,4
    55dc:	10400009 	beqz	v0,5604 <OSTmrStateGet+0xac>
    55e0:	2402ff8d 	li	v0,-115
    55e4:	0c0017bb 	jal	5eec <OSSchedUnlock>
    55e8:	a2200000 	sb	zero,0(s1)
    55ec:	8fbf001c 	lw	ra,28(sp)
    55f0:	02001021 	move	v0,s0
    55f4:	8fb10018 	lw	s1,24(sp)
    55f8:	8fb00014 	lw	s0,20(sp)
    55fc:	03e00008 	jr	ra
    5600:	27bd0020 	addiu	sp,sp,32
    5604:	0c0017bb 	jal	5eec <OSSchedUnlock>
    5608:	a2220000 	sb	v0,0(s1)
    560c:	0800157c 	j	55f0 <OSTmrStateGet+0x98>
    5610:	8fbf001c 	lw	ra,28(sp)

00005614 <OSTmrRemainGet>:
    5614:	90830000 	lbu	v1,0(a0)
    5618:	27bdffe0 	addiu	sp,sp,-32
    561c:	24020064 	li	v0,100
    5620:	afb20018 	sw	s2,24(sp)
    5624:	afb10014 	sw	s1,20(sp)
    5628:	afbf001c 	sw	ra,28(sp)
    562c:	afb00010 	sw	s0,16(sp)
    5630:	00808821 	move	s1,a0
    5634:	1062000b 	beq	v1,v0,5664 <OSTmrRemainGet+0x50>
    5638:	00a09021 	move	s2,a1
    563c:	2402ff89 	li	v0,-119
    5640:	a0a20000 	sb	v0,0(a1)
    5644:	00008021 	move	s0,zero
    5648:	8fbf001c 	lw	ra,28(sp)
    564c:	02001021 	move	v0,s0
    5650:	8fb20018 	lw	s2,24(sp)
    5654:	8fb10014 	lw	s1,20(sp)
    5658:	8fb00010 	lw	s0,16(sp)
    565c:	03e00008 	jr	ra
    5660:	27bd0020 	addiu	sp,sp,32
    5664:	93827850 	lbu	v0,30800(gp)
    5668:	1040000a 	beqz	v0,5694 <OSTmrRemainGet+0x80>
    566c:	8fbf001c 	lw	ra,28(sp)
    5670:	2402ff8b 	li	v0,-117
    5674:	00008021 	move	s0,zero
    5678:	a0a20000 	sb	v0,0(a1)
    567c:	8fb20018 	lw	s2,24(sp)
    5680:	02001021 	move	v0,s0
    5684:	8fb10014 	lw	s1,20(sp)
    5688:	8fb00010 	lw	s0,16(sp)
    568c:	03e00008 	jr	ra
    5690:	27bd0020 	addiu	sp,sp,32
    5694:	0c0017da 	jal	5f68 <OSSchedLock>
    5698:	00000000 	nop
    569c:	92230025 	lbu	v1,37(s1)
    56a0:	24020001 	li	v0,1
    56a4:	10620011 	beq	v1,v0,56ec <OSTmrRemainGet+0xd8>
    56a8:	24020002 	li	v0,2
    56ac:	1060000a 	beqz	v1,56d8 <OSTmrRemainGet+0xc4>
    56b0:	00000000 	nop
    56b4:	1062001a 	beq	v1,v0,5720 <OSTmrRemainGet+0x10c>
    56b8:	24020003 	li	v0,3
    56bc:	10620013 	beq	v1,v0,570c <OSTmrRemainGet+0xf8>
    56c0:	8f827858 	lw	v0,30808(gp)
    56c4:	0c0017bb 	jal	5eec <OSSchedUnlock>
    56c8:	00008021 	move	s0,zero
    56cc:	2402ff8d 	li	v0,-115
    56d0:	08001592 	j	5648 <OSTmrRemainGet+0x34>
    56d4:	a2420000 	sb	v0,0(s2)
    56d8:	0c0017bb 	jal	5eec <OSSchedUnlock>
    56dc:	00008021 	move	s0,zero
    56e0:	2402ff87 	li	v0,-121
    56e4:	08001592 	j	5648 <OSTmrRemainGet+0x34>
    56e8:	a2420000 	sb	v0,0(s2)
    56ec:	92230024 	lbu	v1,36(s1)
    56f0:	1062000f 	beq	v1,v0,5730 <OSTmrRemainGet+0x11c>
    56f4:	00000000 	nop
    56f8:	8e300018 	lw	s0,24(s1)
    56fc:	0c0017bb 	jal	5eec <OSSchedUnlock>
    5700:	00000000 	nop
    5704:	08001592 	j	5648 <OSTmrRemainGet+0x34>
    5708:	a2400000 	sb	zero,0(s2)
    570c:	8e230014 	lw	v1,20(s1)
    5710:	0c0017bb 	jal	5eec <OSSchedUnlock>
    5714:	00628023 	subu	s0,v1,v0
    5718:	08001592 	j	5648 <OSTmrRemainGet+0x34>
    571c:	a2400000 	sb	zero,0(s2)
    5720:	0c0017bb 	jal	5eec <OSSchedUnlock>
    5724:	00008021 	move	s0,zero
    5728:	08001592 	j	5648 <OSTmrRemainGet+0x34>
    572c:	a2400000 	sb	zero,0(s2)
    5730:	8e300018 	lw	s0,24(s1)
    5734:	1600fff1 	bnez	s0,56fc <OSTmrRemainGet+0xe8>
    5738:	00000000 	nop
    573c:	080015bf 	j	56fc <OSTmrRemainGet+0xe8>
    5740:	8e30001c 	lw	s0,28(s1)

00005744 <OSTmrDel>:
    5744:	27bdffe0 	addiu	sp,sp,-32
    5748:	afb10018 	sw	s1,24(sp)
    574c:	afb00014 	sw	s0,20(sp)
    5750:	afbf001c 	sw	ra,28(sp)
    5754:	90830000 	lbu	v1,0(a0)
    5758:	24020064 	li	v0,100
    575c:	00808021 	move	s0,a0
    5760:	10620009 	beq	v1,v0,5788 <OSTmrDel+0x44>
    5764:	00a08821 	move	s1,a1
    5768:	2402ff89 	li	v0,-119
    576c:	a0a20000 	sb	v0,0(a1)
    5770:	00001021 	move	v0,zero
    5774:	8fbf001c 	lw	ra,28(sp)
    5778:	8fb10018 	lw	s1,24(sp)
    577c:	8fb00014 	lw	s0,20(sp)
    5780:	03e00008 	jr	ra
    5784:	27bd0020 	addiu	sp,sp,32
    5788:	93827850 	lbu	v0,30800(gp)
    578c:	10400008 	beqz	v0,57b0 <OSTmrDel+0x6c>
    5790:	8fbf001c 	lw	ra,28(sp)
    5794:	2402ff8b 	li	v0,-117
    5798:	a0a20000 	sb	v0,0(a1)
    579c:	8fb10018 	lw	s1,24(sp)
    57a0:	00001021 	move	v0,zero
    57a4:	8fb00014 	lw	s0,20(sp)
    57a8:	03e00008 	jr	ra
    57ac:	27bd0020 	addiu	sp,sp,32
    57b0:	0c0017da 	jal	5f68 <OSSchedLock>
    57b4:	00000000 	nop
    57b8:	92030025 	lbu	v1,37(s0)
    57bc:	2c620003 	sltiu	v0,v1,3
    57c0:	1040001a 	beqz	v0,582c <OSTmrDel+0xe8>
    57c4:	00000000 	nop
    57c8:	10600021 	beqz	v1,5850 <OSTmrDel+0x10c>
    57cc:	00000000 	nop
    57d0:	3c020000 	lui	v0,0x0
    57d4:	a2000025 	sb	zero,37(s0)
    57d8:	a2000024 	sb	zero,36(s0)
    57dc:	244277a4 	addiu	v0,v0,30628
    57e0:	8f837800 	lw	v1,30720(gp)
    57e4:	97847814 	lhu	a0,30740(gp)
    57e8:	ae020020 	sw	v0,32(s0)
    57ec:	97827824 	lhu	v0,30756(gp)
    57f0:	2484ffff 	addiu	a0,a0,-1
    57f4:	24420001 	addiu	v0,v0,1
    57f8:	ae03000c 	sw	v1,12(s0)
    57fc:	ae00001c 	sw	zero,28(s0)
    5800:	ae000014 	sw	zero,20(s0)
    5804:	ae000004 	sw	zero,4(s0)
    5808:	ae000008 	sw	zero,8(s0)
    580c:	ae000010 	sw	zero,16(s0)
    5810:	a7827824 	sh	v0,30756(gp)
    5814:	af907800 	sw	s0,30720(gp)
    5818:	0c0017bb 	jal	5eec <OSSchedUnlock>
    581c:	a7847814 	sh	a0,30740(gp)
    5820:	a2200000 	sb	zero,0(s1)
    5824:	080015dd 	j	5774 <OSTmrDel+0x30>
    5828:	24020001 	li	v0,1
    582c:	24020003 	li	v0,3
    5830:	1062000d 	beq	v1,v0,5868 <OSTmrDel+0x124>
    5834:	00000000 	nop
    5838:	0c0017bb 	jal	5eec <OSSchedUnlock>
    583c:	00000000 	nop
    5840:	2402ff8d 	li	v0,-115
    5844:	a2220000 	sb	v0,0(s1)
    5848:	080015dd 	j	5774 <OSTmrDel+0x30>
    584c:	00001021 	move	v0,zero
    5850:	0c0017bb 	jal	5eec <OSSchedUnlock>
    5854:	00000000 	nop
    5858:	2402ff87 	li	v0,-121
    585c:	a2220000 	sb	v0,0(s1)
    5860:	080015dd 	j	5774 <OSTmrDel+0x30>
    5864:	00001021 	move	v0,zero
    5868:	0c00140c 	jal	5030 <OSTmr_Unlink>
    586c:	02002021 	move	a0,s0
    5870:	080015f5 	j	57d4 <OSTmrDel+0x90>
    5874:	3c020000 	lui	v0,0x0

00005878 <OSTmrCreate>:
    5878:	93827850 	lbu	v0,30800(gp)
    587c:	27bdffd8 	addiu	sp,sp,-40
    5880:	afb40020 	sw	s4,32(sp)
    5884:	afb3001c 	sw	s3,28(sp)
    5888:	afb20018 	sw	s2,24(sp)
    588c:	afb10014 	sw	s1,20(sp)
    5890:	afbf0024 	sw	ra,36(sp)
    5894:	afb00010 	sw	s0,16(sp)
    5898:	00809021 	move	s2,a0
    589c:	00a09821 	move	s3,a1
    58a0:	00e0a021 	move	s4,a3
    58a4:	14400033 	bnez	v0,5974 <OSTmrCreate+0xfc>
    58a8:	30d100ff 	andi	s1,a2,0xff
    58ac:	0c0017da 	jal	5f68 <OSSchedLock>
    58b0:	00000000 	nop
    58b4:	8f907800 	lw	s0,30720(gp)
    58b8:	12000020 	beqz	s0,593c <OSTmrCreate+0xc4>
    58bc:	97827824 	lhu	v0,30756(gp)
    58c0:	97837814 	lhu	v1,30740(gp)
    58c4:	8e04000c 	lw	a0,12(s0)
    58c8:	2442ffff 	addiu	v0,v0,-1
    58cc:	a7827824 	sh	v0,30756(gp)
    58d0:	24630001 	addiu	v1,v1,1
    58d4:	24020001 	li	v0,1
    58d8:	a7837814 	sh	v1,30740(gp)
    58dc:	af847800 	sw	a0,30720(gp)
    58e0:	a2020025 	sb	v0,37(s0)
    58e4:	a2110024 	sb	s1,36(s0)
    58e8:	8fa20038 	lw	v0,56(sp)
    58ec:	8fa3003c 	lw	v1,60(sp)
    58f0:	ae020008 	sw	v0,8(s0)
    58f4:	ae120018 	sw	s2,24(s0)
    58f8:	ae13001c 	sw	s3,28(s0)
    58fc:	ae140004 	sw	s4,4(s0)
    5900:	ae030020 	sw	v1,32(s0)
    5904:	ae00000c 	sw	zero,12(s0)
    5908:	0c0017bb 	jal	5eec <OSSchedUnlock>
    590c:	ae000010 	sw	zero,16(s0)
    5910:	8fa20040 	lw	v0,64(sp)
    5914:	a0400000 	sb	zero,0(v0)
    5918:	8fbf0024 	lw	ra,36(sp)
    591c:	02001021 	move	v0,s0
    5920:	8fb40020 	lw	s4,32(sp)
    5924:	8fb3001c 	lw	s3,28(sp)
    5928:	8fb20018 	lw	s2,24(sp)
    592c:	8fb10014 	lw	s1,20(sp)
    5930:	8fb00010 	lw	s0,16(sp)
    5934:	03e00008 	jr	ra
    5938:	27bd0028 	addiu	sp,sp,40
    593c:	0c0017bb 	jal	5eec <OSSchedUnlock>
    5940:	00000000 	nop
    5944:	8fa30040 	lw	v1,64(sp)
    5948:	2402ff86 	li	v0,-122
    594c:	a0620000 	sb	v0,0(v1)
    5950:	8fbf0024 	lw	ra,36(sp)
    5954:	02001021 	move	v0,s0
    5958:	8fb40020 	lw	s4,32(sp)
    595c:	8fb3001c 	lw	s3,28(sp)
    5960:	8fb20018 	lw	s2,24(sp)
    5964:	8fb10014 	lw	s1,20(sp)
    5968:	8fb00010 	lw	s0,16(sp)
    596c:	03e00008 	jr	ra
    5970:	27bd0028 	addiu	sp,sp,40
    5974:	8fa30040 	lw	v1,64(sp)
    5978:	2402ff8b 	li	v0,-117
    597c:	a0620000 	sb	v0,0(v1)
    5980:	08001646 	j	5918 <OSTmrCreate+0xa0>
    5984:	00008021 	move	s0,zero

00005988 <OSTmrSignal>:
    5988:	08000d73 	j	35cc <OSSemPost>
    598c:	8f847808 	lw	a0,30728(gp)

00005990 <OSTmrNameGet>:
    5990:	27bdffe0 	addiu	sp,sp,-32
    5994:	afb20018 	sw	s2,24(sp)
    5998:	afb10014 	sw	s1,20(sp)
    599c:	afb00010 	sw	s0,16(sp)
    59a0:	afbf001c 	sw	ra,28(sp)
    59a4:	90830000 	lbu	v1,0(a0)
    59a8:	24020064 	li	v0,100
    59ac:	00808021 	move	s0,a0
    59b0:	00a09021 	move	s2,a1
    59b4:	1062000b 	beq	v1,v0,59e4 <OSTmrNameGet+0x54>
    59b8:	00c08821 	move	s1,a2
    59bc:	2402ff89 	li	v0,-119
    59c0:	a0c20000 	sb	v0,0(a2)
    59c4:	00008021 	move	s0,zero
    59c8:	8fbf001c 	lw	ra,28(sp)
    59cc:	02001021 	move	v0,s0
    59d0:	8fb20018 	lw	s2,24(sp)
    59d4:	8fb10014 	lw	s1,20(sp)
    59d8:	8fb00010 	lw	s0,16(sp)
    59dc:	03e00008 	jr	ra
    59e0:	27bd0020 	addiu	sp,sp,32
    59e4:	93827850 	lbu	v0,30800(gp)
    59e8:	1040000a 	beqz	v0,5a14 <OSTmrNameGet+0x84>
    59ec:	8fbf001c 	lw	ra,28(sp)
    59f0:	24020011 	li	v0,17
    59f4:	00008021 	move	s0,zero
    59f8:	a0c20000 	sb	v0,0(a2)
    59fc:	8fb20018 	lw	s2,24(sp)
    5a00:	02001021 	move	v0,s0
    5a04:	8fb10014 	lw	s1,20(sp)
    5a08:	8fb00010 	lw	s0,16(sp)
    5a0c:	03e00008 	jr	ra
    5a10:	27bd0020 	addiu	sp,sp,32
    5a14:	0c0017da 	jal	5f68 <OSSchedLock>
    5a18:	00000000 	nop
    5a1c:	92020025 	lbu	v0,37(s0)
    5a20:	14400006 	bnez	v0,5a3c <OSTmrNameGet+0xac>
    5a24:	2c420004 	sltiu	v0,v0,4
    5a28:	0c0017bb 	jal	5eec <OSSchedUnlock>
    5a2c:	00008021 	move	s0,zero
    5a30:	2402ff87 	li	v0,-121
    5a34:	08001672 	j	59c8 <OSTmrNameGet+0x38>
    5a38:	a2220000 	sb	v0,0(s1)
    5a3c:	14400006 	bnez	v0,5a58 <OSTmrNameGet+0xc8>
    5a40:	00000000 	nop
    5a44:	0c0017bb 	jal	5eec <OSSchedUnlock>
    5a48:	00008021 	move	s0,zero
    5a4c:	2402ff8d 	li	v0,-115
    5a50:	08001672 	j	59c8 <OSTmrNameGet+0x38>
    5a54:	a2220000 	sb	v0,0(s1)
    5a58:	8e040020 	lw	a0,32(s0)
    5a5c:	0c001785 	jal	5e14 <OS_StrLen>
    5a60:	ae440000 	sw	a0,0(s2)
    5a64:	0c0017bb 	jal	5eec <OSSchedUnlock>
    5a68:	00408021 	move	s0,v0
    5a6c:	08001672 	j	59c8 <OSTmrNameGet+0x38>
    5a70:	a2200000 	sb	zero,0(s1)

00005a74 <OSDebugInit>:
    5a74:	03e00008 	jr	ra
    5a78:	00000000 	nop

00005a7c <OSIntEnter>:
    5a7c:	9383780c 	lbu	v1,30732(gp)
    5a80:	24020001 	li	v0,1
    5a84:	10620003 	beq	v1,v0,5a94 <OSIntEnter+0x18>
    5a88:	93837850 	lbu	v1,30800(gp)
    5a8c:	03e00008 	jr	ra
    5a90:	00000000 	nop
    5a94:	240200ff 	li	v0,255
    5a98:	1062fffc 	beq	v1,v0,5a8c <OSIntEnter+0x10>
    5a9c:	24620001 	addiu	v0,v1,1
    5aa0:	03e00008 	jr	ra
    5aa4:	a3827850 	sb	v0,30800(gp)

00005aa8 <OSVersion>:
    5aa8:	03e00008 	jr	ra
    5aac:	24020123 	li	v0,291

00005ab0 <OS_Dummy>:
    5ab0:	03e00008 	jr	ra
    5ab4:	00000000 	nop

00005ab8 <OS_EventTaskRdy>:
    5ab8:	9082000a 	lbu	v0,10(a0)
    5abc:	3c080000 	lui	t0,0x0
    5ac0:	25087648 	addiu	t0,t0,30280
    5ac4:	00481021 	addu	v0,v0,t0
    5ac8:	904a0000 	lbu	t2,0(v0)
    5acc:	00805821 	move	t3,a0
    5ad0:	008a2021 	addu	a0,a0,t2
    5ad4:	9083000b 	lbu	v1,11(a0)
    5ad8:	000a48c0 	sll	t1,t2,0x3
    5adc:	00681821 	addu	v1,v1,t0
    5ae0:	90620000 	lbu	v0,0(v1)
    5ae4:	30c600ff 	andi	a2,a2,0xff
    5ae8:	00491021 	addu	v0,v0,t1
    5aec:	304c00ff 	andi	t4,v0,0xff
    5af0:	3c020001 	lui	v0,0x1
    5af4:	244297b4 	addiu	v0,v0,-26700
    5af8:	000c1880 	sll	v1,t4,0x2
    5afc:	00621821 	addu	v1,v1,v0
    5b00:	8c680000 	lw	t0,0(v1)
    5b04:	00063027 	nor	a2,zero,a2
    5b08:	91020034 	lbu	v0,52(t0)
    5b0c:	ad050024 	sw	a1,36(t0)
    5b10:	00c23024 	and	a2,a2,v0
    5b14:	30c200ff 	andi	v0,a2,0xff
    5b18:	30420008 	andi	v0,v0,0x8
    5b1c:	a1060034 	sb	a2,52(t0)
    5b20:	a1070035 	sb	a3,53(t0)
    5b24:	10400028 	beqz	v0,5bc8 <OS_EventTaskRdy+0x110>
    5b28:	ad000030 	sw	zero,48(t0)
    5b2c:	91040039 	lbu	a0,57(t0)
    5b30:	91020038 	lbu	v0,56(t0)
    5b34:	00041827 	nor	v1,zero,a0
    5b38:	01621021 	addu	v0,t3,v0
    5b3c:	9044000b 	lbu	a0,11(v0)
    5b40:	00641824 	and	v1,v1,a0
    5b44:	14600006 	bnez	v1,5b60 <OS_EventTaskRdy+0xa8>
    5b48:	a043000b 	sb	v1,11(v0)
    5b4c:	9102003a 	lbu	v0,58(t0)
    5b50:	9163000a 	lbu	v1,10(t3)
    5b54:	00021027 	nor	v0,zero,v0
    5b58:	00431024 	and	v0,v0,v1
    5b5c:	a162000a 	sb	v0,10(t3)
    5b60:	8d050020 	lw	a1,32(t0)
    5b64:	10a00016 	beqz	a1,5bc0 <OS_EventTaskRdy+0x108>
    5b68:	00000000 	nop
    5b6c:	8ca40000 	lw	a0,0(a1)
    5b70:	91070038 	lbu	a3,56(t0)
    5b74:	9103003a 	lbu	v1,58(t0)
    5b78:	10800010 	beqz	a0,5bbc <OS_EventTaskRdy+0x104>
    5b7c:	91020039 	lbu	v0,57(t0)
    5b80:	00021027 	nor	v0,zero,v0
    5b84:	304600ff 	andi	a2,v0,0xff
    5b88:	00034827 	nor	t1,zero,v1
    5b8c:	00871821 	addu	v1,a0,a3
    5b90:	9062000b 	lbu	v0,11(v1)
    5b94:	24a50004 	addiu	a1,a1,4
    5b98:	00c21024 	and	v0,a2,v0
    5b9c:	14400004 	bnez	v0,5bb0 <OS_EventTaskRdy+0xf8>
    5ba0:	a062000b 	sb	v0,11(v1)
    5ba4:	9082000a 	lbu	v0,10(a0)
    5ba8:	01221024 	and	v0,t1,v0
    5bac:	a082000a 	sb	v0,10(a0)
    5bb0:	8ca40000 	lw	a0,0(a1)
    5bb4:	1480fff5 	bnez	a0,5b8c <OS_EventTaskRdy+0xd4>
    5bb8:	00000000 	nop
    5bbc:	ad0b001c 	sw	t3,28(t0)
    5bc0:	03e00008 	jr	ra
    5bc4:	01801021 	move	v0,t4
    5bc8:	9104003a 	lbu	a0,58(t0)
    5bcc:	93827840 	lbu	v0,30784(gp)
    5bd0:	27837844 	addiu	v1,gp,30788
    5bd4:	00441025 	or	v0,v0,a0
    5bd8:	006a1821 	addu	v1,v1,t2
    5bdc:	a3827840 	sb	v0,30784(gp)
    5be0:	91040039 	lbu	a0,57(t0)
    5be4:	90620000 	lbu	v0,0(v1)
    5be8:	00821025 	or	v0,a0,v0
    5bec:	080016cc 	j	5b30 <OS_EventTaskRdy+0x78>
    5bf0:	a0620000 	sb	v0,0(v1)

00005bf4 <OS_EventTaskWait>:
    5bf4:	8f867854 	lw	a2,30804(gp)
    5bf8:	90c80038 	lbu	t0,56(a2)
    5bfc:	acc4001c 	sw	a0,28(a2)
    5c00:	00883821 	addu	a3,a0,t0
    5c04:	90c30039 	lbu	v1,57(a2)
    5c08:	90e2000b 	lbu	v0,11(a3)
    5c0c:	9085000a 	lbu	a1,10(a0)
    5c10:	00621025 	or	v0,v1,v0
    5c14:	a0e2000b 	sb	v0,11(a3)
    5c18:	90c6003a 	lbu	a2,58(a2)
    5c1c:	27827844 	addiu	v0,gp,30788
    5c20:	00c52825 	or	a1,a2,a1
    5c24:	a085000a 	sb	a1,10(a0)
    5c28:	00481021 	addu	v0,v0,t0
    5c2c:	90440000 	lbu	a0,0(v0)
    5c30:	00031827 	nor	v1,zero,v1
    5c34:	00641824 	and	v1,v1,a0
    5c38:	14600005 	bnez	v1,5c50 <OS_EventTaskWait+0x5c>
    5c3c:	a0430000 	sb	v1,0(v0)
    5c40:	93837840 	lbu	v1,30784(gp)
    5c44:	00061027 	nor	v0,zero,a2
    5c48:	00431024 	and	v0,v0,v1
    5c4c:	a3827840 	sb	v0,30784(gp)
    5c50:	03e00008 	jr	ra
    5c54:	00000000 	nop

00005c58 <OS_EventTaskWaitMulti>:
    5c58:	8f8a7854 	lw	t2,30804(gp)
    5c5c:	ad40001c 	sw	zero,28(t2)
    5c60:	8c850000 	lw	a1,0(a0)
    5c64:	10a0001e 	beqz	a1,5ce0 <OS_EventTaskWaitMulti+0x88>
    5c68:	ad440020 	sw	a0,32(t2)
    5c6c:	91480038 	lbu	t0,56(t2)
    5c70:	91470039 	lbu	a3,57(t2)
    5c74:	9149003a 	lbu	t1,58(t2)
    5c78:	00803021 	move	a2,a0
    5c7c:	00a82021 	addu	a0,a1,t0
    5c80:	90a3000a 	lbu	v1,10(a1)
    5c84:	9082000b 	lbu	v0,11(a0)
    5c88:	01231825 	or	v1,t1,v1
    5c8c:	00e21025 	or	v0,a3,v0
    5c90:	a082000b 	sb	v0,11(a0)
    5c94:	a0a3000a 	sb	v1,10(a1)
    5c98:	24c60004 	addiu	a2,a2,4
    5c9c:	8cc50000 	lw	a1,0(a2)
    5ca0:	14a0fff7 	bnez	a1,5c80 <OS_EventTaskWaitMulti+0x28>
    5ca4:	00a82021 	addu	a0,a1,t0
    5ca8:	27827844 	addiu	v0,gp,30788
    5cac:	00481021 	addu	v0,v0,t0
    5cb0:	90440000 	lbu	a0,0(v0)
    5cb4:	00071827 	nor	v1,zero,a3
    5cb8:	00641824 	and	v1,v1,a0
    5cbc:	14600006 	bnez	v1,5cd8 <OS_EventTaskWaitMulti+0x80>
    5cc0:	a0430000 	sb	v1,0(v0)
    5cc4:	9142003a 	lbu	v0,58(t2)
    5cc8:	93837840 	lbu	v1,30784(gp)
    5ccc:	00021027 	nor	v0,zero,v0
    5cd0:	00431024 	and	v0,v0,v1
    5cd4:	a3827840 	sb	v0,30784(gp)
    5cd8:	03e00008 	jr	ra
    5cdc:	00000000 	nop
    5ce0:	91480038 	lbu	t0,56(t2)
    5ce4:	0800172a 	j	5ca8 <OS_EventTaskWaitMulti+0x50>
    5ce8:	91470039 	lbu	a3,57(t2)

00005cec <OS_EventTaskRemove>:
    5cec:	90820038 	lbu	v0,56(a0)
    5cf0:	90830039 	lbu	v1,57(a0)
    5cf4:	00a21021 	addu	v0,a1,v0
    5cf8:	00803021 	move	a2,a0
    5cfc:	9044000b 	lbu	a0,11(v0)
    5d00:	00031827 	nor	v1,zero,v1
    5d04:	00641824 	and	v1,v1,a0
    5d08:	14600006 	bnez	v1,5d24 <OS_EventTaskRemove+0x38>
    5d0c:	a043000b 	sb	v1,11(v0)
    5d10:	90c2003a 	lbu	v0,58(a2)
    5d14:	90a3000a 	lbu	v1,10(a1)
    5d18:	00021027 	nor	v0,zero,v0
    5d1c:	00431024 	and	v0,v0,v1
    5d20:	a0a2000a 	sb	v0,10(a1)
    5d24:	03e00008 	jr	ra
    5d28:	00000000 	nop

00005d2c <OS_EventTaskRemoveMulti>:
    5d2c:	8ca60000 	lw	a2,0(a1)
    5d30:	90820039 	lbu	v0,57(a0)
    5d34:	90870038 	lbu	a3,56(a0)
    5d38:	10c00010 	beqz	a2,5d7c <OS_EventTaskRemoveMulti+0x50>
    5d3c:	9083003a 	lbu	v1,58(a0)
    5d40:	00021027 	nor	v0,zero,v0
    5d44:	304400ff 	andi	a0,v0,0xff
    5d48:	00034027 	nor	t0,zero,v1
    5d4c:	00c71821 	addu	v1,a2,a3
    5d50:	9062000b 	lbu	v0,11(v1)
    5d54:	24a50004 	addiu	a1,a1,4
    5d58:	00821024 	and	v0,a0,v0
    5d5c:	14400004 	bnez	v0,5d70 <OS_EventTaskRemoveMulti+0x44>
    5d60:	a062000b 	sb	v0,11(v1)
    5d64:	90c2000a 	lbu	v0,10(a2)
    5d68:	01021024 	and	v0,t0,v0
    5d6c:	a0c2000a 	sb	v0,10(a2)
    5d70:	8ca60000 	lw	a2,0(a1)
    5d74:	14c0fff6 	bnez	a2,5d50 <OS_EventTaskRemoveMulti+0x24>
    5d78:	00c71821 	addu	v1,a2,a3
    5d7c:	03e00008 	jr	ra
    5d80:	00000000 	nop

00005d84 <OS_EventWaitListInit>:
    5d84:	a080000a 	sb	zero,10(a0)
    5d88:	00001821 	move	v1,zero
    5d8c:	24050008 	li	a1,8
    5d90:	00831021 	addu	v0,a0,v1
    5d94:	24630001 	addiu	v1,v1,1
    5d98:	1465fffd 	bne	v1,a1,5d90 <OS_EventWaitListInit+0xc>
    5d9c:	a040000b 	sb	zero,11(v0)
    5da0:	03e00008 	jr	ra
    5da4:	00000000 	nop

00005da8 <OS_MemClr>:
    5da8:	30a2ffff 	andi	v0,a1,0xffff
    5dac:	10400008 	beqz	v0,5dd0 <OS_MemClr+0x28>
    5db0:	2442ffff 	addiu	v0,v0,-1
    5db4:	3042ffff 	andi	v0,v0,0xffff
    5db8:	24420001 	addiu	v0,v0,1
    5dbc:	00821021 	addu	v0,a0,v0
    5dc0:	a0800000 	sb	zero,0(a0)
    5dc4:	24840001 	addiu	a0,a0,1
    5dc8:	1482fffd 	bne	a0,v0,5dc0 <OS_MemClr+0x18>
    5dcc:	00000000 	nop
    5dd0:	03e00008 	jr	ra
    5dd4:	00000000 	nop

00005dd8 <OS_MemCopy>:
    5dd8:	30c2ffff 	andi	v0,a2,0xffff
    5ddc:	1040000b 	beqz	v0,5e0c <OS_MemCopy+0x34>
    5de0:	00804021 	move	t0,a0
    5de4:	2442ffff 	addiu	v0,v0,-1
    5de8:	3042ffff 	andi	v0,v0,0xffff
    5dec:	24460001 	addiu	a2,v0,1
    5df0:	00003821 	move	a3,zero
    5df4:	00a71021 	addu	v0,a1,a3
    5df8:	90440000 	lbu	a0,0(v0)
    5dfc:	01071821 	addu	v1,t0,a3
    5e00:	24e70001 	addiu	a3,a3,1
    5e04:	14e6fffb 	bne	a3,a2,5df4 <OS_MemCopy+0x1c>
    5e08:	a0640000 	sb	a0,0(v1)
    5e0c:	03e00008 	jr	ra
    5e10:	00000000 	nop

00005e14 <OS_StrLen>:
    5e14:	90820000 	lbu	v0,0(a0)
    5e18:	10400007 	beqz	v0,5e38 <OS_StrLen+0x24>
    5e1c:	00000000 	nop
    5e20:	00001021 	move	v0,zero
    5e24:	24840001 	addiu	a0,a0,1
    5e28:	90830000 	lbu	v1,0(a0)
    5e2c:	24420001 	addiu	v0,v0,1
    5e30:	1460fffc 	bnez	v1,5e24 <OS_StrLen+0x10>
    5e34:	304200ff 	andi	v0,v0,0xff
    5e38:	03e00008 	jr	ra
    5e3c:	00000000 	nop

00005e40 <OS_Sched>:
    5e40:	27bdffe0 	addiu	sp,sp,-32
    5e44:	afbf001c 	sw	ra,28(sp)
    5e48:	afa00010 	sw	zero,16(sp)
    5e4c:	0c001c9e 	jal	7278 <OS_CPU_SR_Save>
    5e50:	00000000 	nop
    5e54:	93837850 	lbu	v1,30800(gp)
    5e58:	afa20010 	sw	v0,16(sp)
    5e5c:	1460001f 	bnez	v1,5edc <OS_Sched+0x9c>
    5e60:	93827804 	lbu	v0,30724(gp)
    5e64:	1440001d 	bnez	v0,5edc <OS_Sched+0x9c>
    5e68:	93837840 	lbu	v1,30784(gp)
    5e6c:	3c060000 	lui	a2,0x0
    5e70:	24c67648 	addiu	a2,a2,30280
    5e74:	00661821 	addu	v1,v1,a2
    5e78:	90650000 	lbu	a1,0(v1)
    5e7c:	27827844 	addiu	v0,gp,30788
    5e80:	00451021 	addu	v0,v0,a1
    5e84:	90430000 	lbu	v1,0(v0)
    5e88:	000528c0 	sll	a1,a1,0x3
    5e8c:	00661821 	addu	v1,v1,a2
    5e90:	90640000 	lbu	a0,0(v1)
    5e94:	3c020001 	lui	v0,0x1
    5e98:	00852021 	addu	a0,a0,a1
    5e9c:	308400ff 	andi	a0,a0,0xff
    5ea0:	244297b4 	addiu	v0,v0,-26700
    5ea4:	00041880 	sll	v1,a0,0x2
    5ea8:	00621821 	addu	v1,v1,v0
    5eac:	8c650000 	lw	a1,0(v1)
    5eb0:	93827817 	lbu	v0,30743(gp)
    5eb4:	a3847816 	sb	a0,30742(gp)
    5eb8:	10440008 	beq	v0,a0,5edc <OS_Sched+0x9c>
    5ebc:	af857838 	sw	a1,30776(gp)
    5ec0:	8ca3003c 	lw	v1,60(a1)
    5ec4:	8f827820 	lw	v0,30752(gp)
    5ec8:	24630001 	addiu	v1,v1,1
    5ecc:	24420001 	addiu	v0,v0,1
    5ed0:	aca3003c 	sw	v1,60(a1)
    5ed4:	af827820 	sw	v0,30752(gp)
    5ed8:	0000000c 	syscall
    5edc:	8fa40010 	lw	a0,16(sp)
    5ee0:	8fbf001c 	lw	ra,28(sp)
    5ee4:	08001ca5 	j	7294 <OS_CPU_SR_Restore>
    5ee8:	27bd0020 	addiu	sp,sp,32

00005eec <OSSchedUnlock>:
    5eec:	9383780c 	lbu	v1,30732(gp)
    5ef0:	27bdffe0 	addiu	sp,sp,-32
    5ef4:	24020001 	li	v0,1
    5ef8:	afbf001c 	sw	ra,28(sp)
    5efc:	afa00010 	sw	zero,16(sp)
    5f00:	10620003 	beq	v1,v0,5f10 <OSSchedUnlock+0x24>
    5f04:	8fbf001c 	lw	ra,28(sp)
    5f08:	03e00008 	jr	ra
    5f0c:	27bd0020 	addiu	sp,sp,32
    5f10:	0c001c9e 	jal	7278 <OS_CPU_SR_Save>
    5f14:	00000000 	nop
    5f18:	93837804 	lbu	v1,30724(gp)
    5f1c:	afa20010 	sw	v0,16(sp)
    5f20:	1060000d 	beqz	v1,5f58 <OSSchedUnlock+0x6c>
    5f24:	2462ffff 	addiu	v0,v1,-1
    5f28:	304200ff 	andi	v0,v0,0xff
    5f2c:	1440000a 	bnez	v0,5f58 <OSSchedUnlock+0x6c>
    5f30:	a3827804 	sb	v0,30724(gp)
    5f34:	93827850 	lbu	v0,30800(gp)
    5f38:	14400007 	bnez	v0,5f58 <OSSchedUnlock+0x6c>
    5f3c:	00000000 	nop
    5f40:	8fa40010 	lw	a0,16(sp)
    5f44:	0c001ca5 	jal	7294 <OS_CPU_SR_Restore>
    5f48:	00000000 	nop
    5f4c:	8fbf001c 	lw	ra,28(sp)
    5f50:	08001790 	j	5e40 <OS_Sched>
    5f54:	27bd0020 	addiu	sp,sp,32
    5f58:	8fa40010 	lw	a0,16(sp)
    5f5c:	8fbf001c 	lw	ra,28(sp)
    5f60:	08001ca5 	j	7294 <OS_CPU_SR_Restore>
    5f64:	27bd0020 	addiu	sp,sp,32

00005f68 <OSSchedLock>:
    5f68:	9383780c 	lbu	v1,30732(gp)
    5f6c:	27bdffe0 	addiu	sp,sp,-32
    5f70:	24020001 	li	v0,1
    5f74:	afbf001c 	sw	ra,28(sp)
    5f78:	afa00010 	sw	zero,16(sp)
    5f7c:	10620003 	beq	v1,v0,5f8c <OSSchedLock+0x24>
    5f80:	8fbf001c 	lw	ra,28(sp)
    5f84:	03e00008 	jr	ra
    5f88:	27bd0020 	addiu	sp,sp,32
    5f8c:	0c001c9e 	jal	7278 <OS_CPU_SR_Save>
    5f90:	00000000 	nop
    5f94:	93837850 	lbu	v1,30800(gp)
    5f98:	afa20010 	sw	v0,16(sp)
    5f9c:	14600005 	bnez	v1,5fb4 <OSSchedLock+0x4c>
    5fa0:	93837804 	lbu	v1,30724(gp)
    5fa4:	240200ff 	li	v0,255
    5fa8:	10620002 	beq	v1,v0,5fb4 <OSSchedLock+0x4c>
    5fac:	24620001 	addiu	v0,v1,1
    5fb0:	a3827804 	sb	v0,30724(gp)
    5fb4:	8fa40010 	lw	a0,16(sp)
    5fb8:	8fbf001c 	lw	ra,28(sp)
    5fbc:	08001ca5 	j	7294 <OS_CPU_SR_Restore>
    5fc0:	27bd0020 	addiu	sp,sp,32

00005fc4 <OSEventPendMulti>:
    5fc4:	aca00000 	sw	zero,0(a1)
    5fc8:	8c820000 	lw	v0,0(a0)
    5fcc:	27bdffc8 	addiu	sp,sp,-56
    5fd0:	afb5002c 	sw	s5,44(sp)
    5fd4:	afb40028 	sw	s4,40(sp)
    5fd8:	afb30024 	sw	s3,36(sp)
    5fdc:	afb1001c 	sw	s1,28(sp)
    5fe0:	afb00018 	sw	s0,24(sp)
    5fe4:	afbf0034 	sw	ra,52(sp)
    5fe8:	afb60030 	sw	s6,48(sp)
    5fec:	afb20020 	sw	s2,32(sp)
    5ff0:	00a08821 	move	s1,a1
    5ff4:	00808021 	move	s0,a0
    5ff8:	00c09821 	move	s3,a2
    5ffc:	00e0a821 	move	s5,a3
    6000:	afa00010 	sw	zero,16(sp)
    6004:	10400019 	beqz	v0,606c <OSEventPendMulti+0xa8>
    6008:	8fb40048 	lw	s4,72(sp)
    600c:	00801821 	move	v1,a0
    6010:	24040002 	li	a0,2
    6014:	90420000 	lbu	v0,0(v0)
    6018:	2442ffff 	addiu	v0,v0,-1
    601c:	0082102b 	sltu	v0,a0,v0
    6020:	1040000f 	beqz	v0,6060 <OSEventPendMulti+0x9c>
    6024:	24630004 	addiu	v1,v1,4
    6028:	24020001 	li	v0,1
    602c:	a2820000 	sb	v0,0(s4)
    6030:	00009021 	move	s2,zero
    6034:	8fbf0034 	lw	ra,52(sp)
    6038:	02401021 	move	v0,s2
    603c:	8fb60030 	lw	s6,48(sp)
    6040:	8fb5002c 	lw	s5,44(sp)
    6044:	8fb40028 	lw	s4,40(sp)
    6048:	8fb30024 	lw	s3,36(sp)
    604c:	8fb20020 	lw	s2,32(sp)
    6050:	8fb1001c 	lw	s1,28(sp)
    6054:	8fb00018 	lw	s0,24(sp)
    6058:	03e00008 	jr	ra
    605c:	27bd0038 	addiu	sp,sp,56
    6060:	8c620000 	lw	v0,0(v1)
    6064:	1440ffeb 	bnez	v0,6014 <OSEventPendMulti+0x50>
    6068:	00000000 	nop
    606c:	93827850 	lbu	v0,30800(gp)
    6070:	14400010 	bnez	v0,60b4 <OSEventPendMulti+0xf0>
    6074:	93827804 	lbu	v0,30724(gp)
    6078:	1040001c 	beqz	v0,60ec <OSEventPendMulti+0x128>
    607c:	2402000d 	li	v0,13
    6080:	a2820000 	sb	v0,0(s4)
    6084:	8fbf0034 	lw	ra,52(sp)
    6088:	00009021 	move	s2,zero
    608c:	02401021 	move	v0,s2
    6090:	8fb60030 	lw	s6,48(sp)
    6094:	8fb5002c 	lw	s5,44(sp)
    6098:	8fb40028 	lw	s4,40(sp)
    609c:	8fb30024 	lw	s3,36(sp)
    60a0:	8fb20020 	lw	s2,32(sp)
    60a4:	8fb1001c 	lw	s1,28(sp)
    60a8:	8fb00018 	lw	s0,24(sp)
    60ac:	03e00008 	jr	ra
    60b0:	27bd0038 	addiu	sp,sp,56
    60b4:	24020002 	li	v0,2
    60b8:	a2820000 	sb	v0,0(s4)
    60bc:	8fbf0034 	lw	ra,52(sp)
    60c0:	00009021 	move	s2,zero
    60c4:	02401021 	move	v0,s2
    60c8:	8fb60030 	lw	s6,48(sp)
    60cc:	8fb5002c 	lw	s5,44(sp)
    60d0:	8fb40028 	lw	s4,40(sp)
    60d4:	8fb30024 	lw	s3,36(sp)
    60d8:	8fb20020 	lw	s2,32(sp)
    60dc:	8fb1001c 	lw	s1,28(sp)
    60e0:	8fb00018 	lw	s0,24(sp)
    60e4:	03e00008 	jr	ra
    60e8:	27bd0038 	addiu	sp,sp,56
    60ec:	0c001c9e 	jal	7278 <OS_CPU_SR_Save>
    60f0:	00000000 	nop
    60f4:	8e050000 	lw	a1,0(s0)
    60f8:	afa20010 	sw	v0,16(sp)
    60fc:	10a000a7 	beqz	a1,639c <OSEventPendMulti+0x3d8>
    6100:	02003821 	move	a3,s0
    6104:	00001821 	move	v1,zero
    6108:	00009021 	move	s2,zero
    610c:	00004021 	move	t0,zero
    6110:	24090002 	li	t1,2
    6114:	240b0001 	li	t3,1
    6118:	240a0003 	li	t2,3
    611c:	90a20000 	lbu	v0,0(a1)
    6120:	1049000c 	beq	v0,t1,6154 <OSEventPendMulti+0x190>
    6124:	00000000 	nop
    6128:	104a0069 	beq	v0,t2,62d0 <OSEventPendMulti+0x30c>
    612c:	00000000 	nop
    6130:	104b001d 	beq	v0,t3,61a8 <OSEventPendMulti+0x1e4>
    6134:	00000000 	nop
    6138:	8fa40010 	lw	a0,16(sp)
    613c:	0c001ca5 	jal	7294 <OS_CPU_SR_Restore>
    6140:	00000000 	nop
    6144:	24020001 	li	v0,1
    6148:	ae200000 	sw	zero,0(s1)
    614c:	0800180d 	j	6034 <OSEventPendMulti+0x70>
    6150:	a2820000 	sb	v0,0(s4)
    6154:	8ca60004 	lw	a2,4(a1)
    6158:	94c20016 	lhu	v0,22(a2)
    615c:	1040006a 	beqz	v0,6308 <OSEventPendMulti+0x344>
    6160:	00000000 	nop
    6164:	8cc20010 	lw	v0,16(a2)
    6168:	8cc40008 	lw	a0,8(a2)
    616c:	8c430000 	lw	v1,0(v0)
    6170:	24420004 	addiu	v0,v0,4
    6174:	ae630000 	sw	v1,0(s3)
    6178:	10440071 	beq	v0,a0,6340 <OSEventPendMulti+0x37c>
    617c:	acc20010 	sw	v0,16(a2)
    6180:	94c20016 	lhu	v0,22(a2)
    6184:	26430001 	addiu	v1,s2,1
    6188:	2442ffff 	addiu	v0,v0,-1
    618c:	ae250000 	sw	a1,0(s1)
    6190:	3072ffff 	andi	s2,v1,0xffff
    6194:	a4c20016 	sh	v0,22(a2)
    6198:	26730004 	addiu	s3,s3,4
    619c:	26310004 	addiu	s1,s1,4
    61a0:	08001874 	j	61d0 <OSEventPendMulti+0x20c>
    61a4:	24030001 	li	v1,1
    61a8:	8ca40004 	lw	a0,4(a1)
    61ac:	10800058 	beqz	a0,6310 <OSEventPendMulti+0x34c>
    61b0:	26420001 	addiu	v0,s2,1
    61b4:	ae640000 	sw	a0,0(s3)
    61b8:	ae250000 	sw	a1,0(s1)
    61bc:	26730004 	addiu	s3,s3,4
    61c0:	aca00004 	sw	zero,4(a1)
    61c4:	26310004 	addiu	s1,s1,4
    61c8:	3052ffff 	andi	s2,v0,0xffff
    61cc:	24030001 	li	v1,1
    61d0:	24e70004 	addiu	a3,a3,4
    61d4:	8ce50000 	lw	a1,0(a3)
    61d8:	14a0ffd0 	bnez	a1,611c <OSEventPendMulti+0x158>
    61dc:	00000000 	nop
    61e0:	14600069 	bnez	v1,6388 <OSEventPendMulti+0x3c4>
    61e4:	0240b021 	move	s6,s2
    61e8:	8f847854 	lw	a0,30804(gp)
    61ec:	2403ff80 	li	v1,-128
    61f0:	90820034 	lbu	v0,52(a0)
    61f4:	ac950030 	sw	s5,48(a0)
    61f8:	00431025 	or	v0,v0,v1
    61fc:	01021025 	or	v0,t0,v0
    6200:	a0820034 	sb	v0,52(a0)
    6204:	a0800035 	sb	zero,53(a0)
    6208:	0c001716 	jal	5c58 <OS_EventTaskWaitMulti>
    620c:	02002021 	move	a0,s0
    6210:	8fa40010 	lw	a0,16(sp)
    6214:	0c001ca5 	jal	7294 <OS_CPU_SR_Restore>
    6218:	00000000 	nop
    621c:	0c001790 	jal	5e40 <OS_Sched>
    6220:	00000000 	nop
    6224:	0c001c9e 	jal	7278 <OS_CPU_SR_Save>
    6228:	00000000 	nop
    622c:	8f857854 	lw	a1,30804(gp)
    6230:	afa20010 	sw	v0,16(sp)
    6234:	90a30035 	lbu	v1,53(a1)
    6238:	10600037 	beqz	v1,6318 <OSEventPendMulti+0x354>
    623c:	24020002 	li	v0,2
    6240:	10620035 	beq	v1,v0,6318 <OSEventPendMulti+0x354>
    6244:	00000000 	nop
    6248:	8e040000 	lw	a0,0(s0)
    624c:	90a80038 	lbu	t0,56(a1)
    6250:	90a7003a 	lbu	a3,58(a1)
    6254:	10800011 	beqz	a0,629c <OSEventPendMulti+0x2d8>
    6258:	90a20039 	lbu	v0,57(a1)
    625c:	00021027 	nor	v0,zero,v0
    6260:	304600ff 	andi	a2,v0,0xff
    6264:	00073827 	nor	a3,zero,a3
    6268:	00881821 	addu	v1,a0,t0
    626c:	9062000b 	lbu	v0,11(v1)
    6270:	26100004 	addiu	s0,s0,4
    6274:	00c21024 	and	v0,a2,v0
    6278:	14400004 	bnez	v0,628c <OSEventPendMulti+0x2c8>
    627c:	a062000b 	sb	v0,11(v1)
    6280:	9082000a 	lbu	v0,10(a0)
    6284:	00e21024 	and	v0,a3,v0
    6288:	a082000a 	sb	v0,10(a0)
    628c:	8e040000 	lw	a0,0(s0)
    6290:	1480fff6 	bnez	a0,626c <OSEventPendMulti+0x2a8>
    6294:	00881821 	addu	v1,a0,t0
    6298:	90a30035 	lbu	v1,53(a1)
    629c:	00003021 	move	a2,zero
    62a0:	1460002a 	bnez	v1,634c <OSEventPendMulti+0x388>
    62a4:	24020002 	li	v0,2
    62a8:	90c30000 	lbu	v1,0(a2)
    62ac:	14600042 	bnez	v1,63b8 <OSEventPendMulti+0x3f4>
    62b0:	2c620003 	sltiu	v0,v1,3
    62b4:	8fa40010 	lw	a0,16(sp)
    62b8:	0c001ca5 	jal	7294 <OS_CPU_SR_Restore>
    62bc:	00000000 	nop
    62c0:	24020001 	li	v0,1
    62c4:	ae200000 	sw	zero,0(s1)
    62c8:	0800180d 	j	6034 <OSEventPendMulti+0x70>
    62cc:	a2820000 	sb	v0,0(s4)
    62d0:	94a20008 	lhu	v0,8(a1)
    62d4:	1040000a 	beqz	v0,6300 <OSEventPendMulti+0x33c>
    62d8:	2442ffff 	addiu	v0,v0,-1
    62dc:	26430001 	addiu	v1,s2,1
    62e0:	ae250000 	sw	a1,0(s1)
    62e4:	ae600000 	sw	zero,0(s3)
    62e8:	3072ffff 	andi	s2,v1,0xffff
    62ec:	a4a20008 	sh	v0,8(a1)
    62f0:	26310004 	addiu	s1,s1,4
    62f4:	26730004 	addiu	s3,s3,4
    62f8:	08001874 	j	61d0 <OSEventPendMulti+0x20c>
    62fc:	24030001 	li	v1,1
    6300:	08001874 	j	61d0 <OSEventPendMulti+0x20c>
    6304:	35080001 	ori	t0,t0,0x1
    6308:	08001874 	j	61d0 <OSEventPendMulti+0x20c>
    630c:	35080004 	ori	t0,t0,0x4
    6310:	08001874 	j	61d0 <OSEventPendMulti+0x20c>
    6314:	35080002 	ori	t0,t0,0x2
    6318:	8ca6001c 	lw	a2,28(a1)
    631c:	10c00031 	beqz	a2,63e4 <OSEventPendMulti+0x420>
    6320:	24020001 	li	v0,1
    6324:	ae260000 	sw	a2,0(s1)
    6328:	26310004 	addiu	s1,s1,4
    632c:	ae200000 	sw	zero,0(s1)
    6330:	26c20001 	addiu	v0,s6,1
    6334:	3052ffff 	andi	s2,v0,0xffff
    6338:	080018a8 	j	62a0 <OSEventPendMulti+0x2dc>
    633c:	90a30035 	lbu	v1,53(a1)
    6340:	8cc20004 	lw	v0,4(a2)
    6344:	08001860 	j	6180 <OSEventPendMulti+0x1bc>
    6348:	acc20010 	sw	v0,16(a2)
    634c:	10620017 	beq	v1,v0,63ac <OSEventPendMulti+0x3e8>
    6350:	2402000e 	li	v0,14
    6354:	2402000a 	li	v0,10
    6358:	ae600000 	sw	zero,0(s3)
    635c:	a2820000 	sb	v0,0(s4)
    6360:	8f827854 	lw	v0,30804(gp)
    6364:	a0400034 	sb	zero,52(v0)
    6368:	a0400035 	sb	zero,53(v0)
    636c:	8fa40010 	lw	a0,16(sp)
    6370:	ac400024 	sw	zero,36(v0)
    6374:	ac40001c 	sw	zero,28(v0)
    6378:	0c001ca5 	jal	7294 <OS_CPU_SR_Restore>
    637c:	ac400020 	sw	zero,32(v0)
    6380:	0800180e 	j	6038 <OSEventPendMulti+0x74>
    6384:	8fbf0034 	lw	ra,52(sp)
    6388:	8fa40010 	lw	a0,16(sp)
    638c:	0c001ca5 	jal	7294 <OS_CPU_SR_Restore>
    6390:	ae200000 	sw	zero,0(s1)
    6394:	0800180d 	j	6034 <OSEventPendMulti+0x70>
    6398:	a2800000 	sb	zero,0(s4)
    639c:	0000b021 	move	s6,zero
    63a0:	00004021 	move	t0,zero
    63a4:	0800187a 	j	61e8 <OSEventPendMulti+0x224>
    63a8:	00009021 	move	s2,zero
    63ac:	ae600000 	sw	zero,0(s3)
    63b0:	080018d8 	j	6360 <OSEventPendMulti+0x39c>
    63b4:	a2820000 	sb	v0,0(s4)
    63b8:	14400006 	bnez	v0,63d4 <OSEventPendMulti+0x410>
    63bc:	24020003 	li	v0,3
    63c0:	1462ffbc 	bne	v1,v0,62b4 <OSEventPendMulti+0x2f0>
    63c4:	00000000 	nop
    63c8:	ae600000 	sw	zero,0(s3)
    63cc:	080018d8 	j	6360 <OSEventPendMulti+0x39c>
    63d0:	a2800000 	sb	zero,0(s4)
    63d4:	8ca20024 	lw	v0,36(a1)
    63d8:	ae620000 	sw	v0,0(s3)
    63dc:	080018d8 	j	6360 <OSEventPendMulti+0x39c>
    63e0:	a2800000 	sb	zero,0(s4)
    63e4:	a0a20035 	sb	v0,53(a1)
    63e8:	8e040000 	lw	a0,0(s0)
    63ec:	90a80038 	lbu	t0,56(a1)
    63f0:	90a3003a 	lbu	v1,58(a1)
    63f4:	1080ffd7 	beqz	a0,6354 <OSEventPendMulti+0x390>
    63f8:	90a20039 	lbu	v0,57(a1)
    63fc:	00021027 	nor	v0,zero,v0
    6400:	304700ff 	andi	a3,v0,0xff
    6404:	00034827 	nor	t1,zero,v1
    6408:	00881821 	addu	v1,a0,t0
    640c:	9062000b 	lbu	v0,11(v1)
    6410:	26100004 	addiu	s0,s0,4
    6414:	00e21024 	and	v0,a3,v0
    6418:	14400004 	bnez	v0,642c <OSEventPendMulti+0x468>
    641c:	a062000b 	sb	v0,11(v1)
    6420:	9082000a 	lbu	v0,10(a0)
    6424:	01221024 	and	v0,t1,v0
    6428:	a082000a 	sb	v0,10(a0)
    642c:	8e040000 	lw	a0,0(s0)
    6430:	1480fff5 	bnez	a0,6408 <OSEventPendMulti+0x444>
    6434:	00000000 	nop
    6438:	080018a8 	j	62a0 <OSEventPendMulti+0x2dc>
    643c:	90a30035 	lbu	v1,53(a1)

00006440 <OSEventNameSet>:
    6440:	93827850 	lbu	v0,30800(gp)
    6444:	27bdffd8 	addiu	sp,sp,-40
    6448:	afb20020 	sw	s2,32(sp)
    644c:	afb1001c 	sw	s1,28(sp)
    6450:	afb00018 	sw	s0,24(sp)
    6454:	afbf0024 	sw	ra,36(sp)
    6458:	00808821 	move	s1,a0
    645c:	00a09021 	move	s2,a1
    6460:	00c08021 	move	s0,a2
    6464:	afa00010 	sw	zero,16(sp)
    6468:	1440000d 	bnez	v0,64a0 <OSEventNameSet+0x60>
    646c:	24030003 	li	v1,3
    6470:	90820000 	lbu	v0,0(a0)
    6474:	2442ffff 	addiu	v0,v0,-1
    6478:	0062102b 	sltu	v0,v1,v0
    647c:	10400010 	beqz	v0,64c0 <OSEventNameSet+0x80>
    6480:	8fbf0024 	lw	ra,36(sp)
    6484:	24020001 	li	v0,1
    6488:	8fb20020 	lw	s2,32(sp)
    648c:	8fb1001c 	lw	s1,28(sp)
    6490:	8fb00018 	lw	s0,24(sp)
    6494:	a0c20000 	sb	v0,0(a2)
    6498:	03e00008 	jr	ra
    649c:	27bd0028 	addiu	sp,sp,40
    64a0:	8fbf0024 	lw	ra,36(sp)
    64a4:	24020012 	li	v0,18
    64a8:	8fb20020 	lw	s2,32(sp)
    64ac:	8fb1001c 	lw	s1,28(sp)
    64b0:	8fb00018 	lw	s0,24(sp)
    64b4:	a0c20000 	sb	v0,0(a2)
    64b8:	03e00008 	jr	ra
    64bc:	27bd0028 	addiu	sp,sp,40
    64c0:	0c001c9e 	jal	7278 <OS_CPU_SR_Save>
    64c4:	00000000 	nop
    64c8:	afa20010 	sw	v0,16(sp)
    64cc:	8fa40010 	lw	a0,16(sp)
    64d0:	0c001ca5 	jal	7294 <OS_CPU_SR_Restore>
    64d4:	ae320014 	sw	s2,20(s1)
    64d8:	a2000000 	sb	zero,0(s0)
    64dc:	8fbf0024 	lw	ra,36(sp)
    64e0:	8fb20020 	lw	s2,32(sp)
    64e4:	8fb1001c 	lw	s1,28(sp)
    64e8:	8fb00018 	lw	s0,24(sp)
    64ec:	03e00008 	jr	ra
    64f0:	27bd0028 	addiu	sp,sp,40

000064f4 <OSEventNameGet>:
    64f4:	93827850 	lbu	v0,30800(gp)
    64f8:	27bdffd8 	addiu	sp,sp,-40
    64fc:	afb20020 	sw	s2,32(sp)
    6500:	afb1001c 	sw	s1,28(sp)
    6504:	afb00018 	sw	s0,24(sp)
    6508:	afbf0024 	sw	ra,36(sp)
    650c:	00808021 	move	s0,a0
    6510:	00a09021 	move	s2,a1
    6514:	00c08821 	move	s1,a2
    6518:	afa00010 	sw	zero,16(sp)
    651c:	14400028 	bnez	v0,65c0 <OSEventNameGet+0xcc>
    6520:	24030003 	li	v1,3
    6524:	90820000 	lbu	v0,0(a0)
    6528:	2442ffff 	addiu	v0,v0,-1
    652c:	0062102b 	sltu	v0,v1,v0
    6530:	1440001a 	bnez	v0,659c <OSEventNameGet+0xa8>
    6534:	8fbf0024 	lw	ra,36(sp)
    6538:	0c001c9e 	jal	7278 <OS_CPU_SR_Save>
    653c:	00000000 	nop
    6540:	8e040014 	lw	a0,20(s0)
    6544:	afa20010 	sw	v0,16(sp)
    6548:	ae440000 	sw	a0,0(s2)
    654c:	90820000 	lbu	v0,0(a0)
    6550:	10400025 	beqz	v0,65e8 <OSEventNameGet+0xf4>
    6554:	00000000 	nop
    6558:	00008021 	move	s0,zero
    655c:	24840001 	addiu	a0,a0,1
    6560:	90830000 	lbu	v1,0(a0)
    6564:	26020001 	addiu	v0,s0,1
    6568:	1460fffc 	bnez	v1,655c <OSEventNameGet+0x68>
    656c:	305000ff 	andi	s0,v0,0xff
    6570:	8fa40010 	lw	a0,16(sp)
    6574:	0c001ca5 	jal	7294 <OS_CPU_SR_Restore>
    6578:	00000000 	nop
    657c:	a2200000 	sb	zero,0(s1)
    6580:	8fbf0024 	lw	ra,36(sp)
    6584:	02001021 	move	v0,s0
    6588:	8fb20020 	lw	s2,32(sp)
    658c:	8fb1001c 	lw	s1,28(sp)
    6590:	8fb00018 	lw	s0,24(sp)
    6594:	03e00008 	jr	ra
    6598:	27bd0028 	addiu	sp,sp,40
    659c:	24020001 	li	v0,1
    65a0:	00008021 	move	s0,zero
    65a4:	a0c20000 	sb	v0,0(a2)
    65a8:	8fb20020 	lw	s2,32(sp)
    65ac:	02001021 	move	v0,s0
    65b0:	8fb1001c 	lw	s1,28(sp)
    65b4:	8fb00018 	lw	s0,24(sp)
    65b8:	03e00008 	jr	ra
    65bc:	27bd0028 	addiu	sp,sp,40
    65c0:	8fbf0024 	lw	ra,36(sp)
    65c4:	24020011 	li	v0,17
    65c8:	00008021 	move	s0,zero
    65cc:	a0c20000 	sb	v0,0(a2)
    65d0:	8fb20020 	lw	s2,32(sp)
    65d4:	02001021 	move	v0,s0
    65d8:	8fb1001c 	lw	s1,28(sp)
    65dc:	8fb00018 	lw	s0,24(sp)
    65e0:	03e00008 	jr	ra
    65e4:	27bd0028 	addiu	sp,sp,40
    65e8:	0800195c 	j	6570 <OSEventNameGet+0x7c>
    65ec:	00008021 	move	s0,zero

000065f0 <OS_TCBInit>:
    65f0:	27bdffc8 	addiu	sp,sp,-56
    65f4:	afb50030 	sw	s5,48(sp)
    65f8:	afb4002c 	sw	s4,44(sp)
    65fc:	afb30028 	sw	s3,40(sp)
    6600:	afb20024 	sw	s2,36(sp)
    6604:	afb10020 	sw	s1,32(sp)
    6608:	afb0001c 	sw	s0,28(sp)
    660c:	afbf0034 	sw	ra,52(sp)
    6610:	00a0a021 	move	s4,a1
    6614:	00c0a821 	move	s5,a2
    6618:	309100ff 	andi	s1,a0,0xff
    661c:	30f3ffff 	andi	s3,a3,0xffff
    6620:	afa00010 	sw	zero,16(sp)
    6624:	0c001c9e 	jal	7278 <OS_CPU_SR_Save>
    6628:	97b20052 	lhu	s2,82(sp)
    662c:	8f90782c 	lw	s0,30764(gp)
    6630:	afa20010 	sw	v0,16(sp)
    6634:	12000056 	beqz	s0,6790 <OS_TCBInit+0x1a0>
    6638:	00000000 	nop
    663c:	8e020014 	lw	v0,20(s0)
    6640:	8fa40010 	lw	a0,16(sp)
    6644:	0c001ca5 	jal	7294 <OS_CPU_SR_Restore>
    6648:	af82782c 	sw	v0,30764(gp)
    664c:	001110c2 	srl	v0,s1,0x3
    6650:	32230007 	andi	v1,s1,0x7
    6654:	a2020038 	sb	v0,56(s0)
    6658:	a2030037 	sb	v1,55(s0)
    665c:	304400ff 	andi	a0,v0,0xff
    6660:	306300ff 	andi	v1,v1,0xff
    6664:	24020001 	li	v0,1
    6668:	00621804 	sllv	v1,v0,v1
    666c:	00821004 	sllv	v0,v0,a0
    6670:	8fa4004c 	lw	a0,76(sp)
    6674:	ae140000 	sw	s4,0(s0)
    6678:	ae040004 	sw	a0,4(s0)
    667c:	8fa40048 	lw	a0,72(sp)
    6680:	a202003a 	sb	v0,58(s0)
    6684:	3c020000 	lui	v0,0x0
    6688:	244277a4 	addiu	v0,v0,30628
    668c:	a2030039 	sb	v1,57(s0)
    6690:	ae020050 	sw	v0,80(s0)
    6694:	ae04000c 	sw	a0,12(s0)
    6698:	ae150008 	sw	s5,8(s0)
    669c:	02002021 	move	a0,s0
    66a0:	a6120010 	sh	s2,16(s0)
    66a4:	a6130012 	sh	s3,18(s0)
    66a8:	a2110036 	sb	s1,54(s0)
    66ac:	a2000034 	sb	zero,52(s0)
    66b0:	a2000035 	sb	zero,53(s0)
    66b4:	ae000030 	sw	zero,48(s0)
    66b8:	a200003b 	sb	zero,59(s0)
    66bc:	ae00001c 	sw	zero,28(s0)
    66c0:	ae000020 	sw	zero,32(s0)
    66c4:	ae000028 	sw	zero,40(s0)
    66c8:	ae000024 	sw	zero,36(s0)
    66cc:	ae00003c 	sw	zero,60(s0)
    66d0:	ae000044 	sw	zero,68(s0)
    66d4:	ae000040 	sw	zero,64(s0)
    66d8:	ae000048 	sw	zero,72(s0)
    66dc:	ae00004c 	sw	zero,76(s0)
    66e0:	0c001c16 	jal	7058 <OSTCBInitHook>
    66e4:	ae000054 	sw	zero,84(s0)
    66e8:	0c001baa 	jal	6ea8 <OSTaskCreateHook>
    66ec:	02002021 	move	a0,s0
    66f0:	0c001c9e 	jal	7278 <OS_CPU_SR_Save>
    66f4:	00000000 	nop
    66f8:	3c030001 	lui	v1,0x1
    66fc:	8f857818 	lw	a1,30744(gp)
    6700:	00112080 	sll	a0,s1,0x2
    6704:	246397b4 	addiu	v1,v1,-26700
    6708:	00832021 	addu	a0,a0,v1
    670c:	ac900000 	sw	s0,0(a0)
    6710:	afa20010 	sw	v0,16(sp)
    6714:	ae050014 	sw	a1,20(s0)
    6718:	10a00002 	beqz	a1,6724 <OS_TCBInit+0x134>
    671c:	ae000018 	sw	zero,24(s0)
    6720:	acb00018 	sw	s0,24(a1)
    6724:	af907818 	sw	s0,30744(gp)
    6728:	9203003a 	lbu	v1,58(s0)
    672c:	93827840 	lbu	v0,30784(gp)
    6730:	27857844 	addiu	a1,gp,30788
    6734:	00431025 	or	v0,v0,v1
    6738:	a3827840 	sb	v0,30784(gp)
    673c:	92040038 	lbu	a0,56(s0)
    6740:	92060039 	lbu	a2,57(s0)
    6744:	00a42821 	addu	a1,a1,a0
    6748:	90a30000 	lbu	v1,0(a1)
    674c:	93827831 	lbu	v0,30769(gp)
    6750:	8fa40010 	lw	a0,16(sp)
    6754:	00661825 	or	v1,v1,a2
    6758:	24420001 	addiu	v0,v0,1
    675c:	a0a30000 	sb	v1,0(a1)
    6760:	0c001ca5 	jal	7294 <OS_CPU_SR_Restore>
    6764:	a3827831 	sb	v0,30769(gp)
    6768:	8fbf0034 	lw	ra,52(sp)
    676c:	00001021 	move	v0,zero
    6770:	8fb50030 	lw	s5,48(sp)
    6774:	8fb4002c 	lw	s4,44(sp)
    6778:	8fb30028 	lw	s3,40(sp)
    677c:	8fb20024 	lw	s2,36(sp)
    6780:	8fb10020 	lw	s1,32(sp)
    6784:	8fb0001c 	lw	s0,28(sp)
    6788:	03e00008 	jr	ra
    678c:	27bd0038 	addiu	sp,sp,56
    6790:	8fa40010 	lw	a0,16(sp)
    6794:	0c001ca5 	jal	7294 <OS_CPU_SR_Restore>
    6798:	00000000 	nop
    679c:	8fbf0034 	lw	ra,52(sp)
    67a0:	24020042 	li	v0,66
    67a4:	8fb50030 	lw	s5,48(sp)
    67a8:	8fb4002c 	lw	s4,44(sp)
    67ac:	8fb30028 	lw	s3,40(sp)
    67b0:	8fb20024 	lw	s2,36(sp)
    67b4:	8fb10020 	lw	s1,32(sp)
    67b8:	8fb0001c 	lw	s0,28(sp)
    67bc:	03e00008 	jr	ra
    67c0:	27bd0038 	addiu	sp,sp,56

000067c4 <OS_TaskStatStkChk>:
    67c4:	27bdffd0 	addiu	sp,sp,-48
    67c8:	3c020001 	lui	v0,0x1
    67cc:	afb40028 	sw	s4,40(sp)
    67d0:	afb30024 	sw	s3,36(sp)
    67d4:	afb20020 	sw	s2,32(sp)
    67d8:	afb1001c 	sw	s1,28(sp)
    67dc:	afb00018 	sw	s0,24(sp)
    67e0:	afbf002c 	sw	ra,44(sp)
    67e4:	245197b4 	addiu	s1,v0,-26700
    67e8:	00008021 	move	s0,zero
    67ec:	27b30010 	addiu	s3,sp,16
    67f0:	24140001 	li	s4,1
    67f4:	24120040 	li	s2,64
    67f8:	02002021 	move	a0,s0
    67fc:	02602821 	move	a1,s3
    6800:	0c000f3e 	jal	3cf8 <OSTaskStkChk>
    6804:	26100001 	addiu	s0,s0,1
    6808:	1440000c 	bnez	v0,683c <OS_TaskStatStkChk+0x78>
    680c:	00000000 	nop
    6810:	8e250000 	lw	a1,0(s1)
    6814:	10a00009 	beqz	a1,683c <OS_TaskStatStkChk+0x78>
    6818:	00000000 	nop
    681c:	10b40007 	beq	a1,s4,683c <OS_TaskStatStkChk+0x78>
    6820:	8fa30014 	lw	v1,20(sp)
    6824:	8ca2000c 	lw	v0,12(a1)
    6828:	8ca40008 	lw	a0,8(a1)
    682c:	00021080 	sll	v0,v0,0x2
    6830:	00822021 	addu	a0,a0,v0
    6834:	aca3004c 	sw	v1,76(a1)
    6838:	aca40048 	sw	a0,72(a1)
    683c:	1612ffee 	bne	s0,s2,67f8 <OS_TaskStatStkChk+0x34>
    6840:	26310004 	addiu	s1,s1,4
    6844:	8fbf002c 	lw	ra,44(sp)
    6848:	8fb40028 	lw	s4,40(sp)
    684c:	8fb30024 	lw	s3,36(sp)
    6850:	8fb20020 	lw	s2,32(sp)
    6854:	8fb1001c 	lw	s1,28(sp)
    6858:	8fb00018 	lw	s0,24(sp)
    685c:	03e00008 	jr	ra
    6860:	27bd0030 	addiu	sp,sp,48

00006864 <OSStatInit>:
    6864:	27bdffe0 	addiu	sp,sp,-32
    6868:	24040002 	li	a0,2
    686c:	afbf001c 	sw	ra,28(sp)
    6870:	afa00010 	sw	zero,16(sp)
    6874:	0c001384 	jal	4e10 <OSTimeDly>
    6878:	00000000 	nop
    687c:	0c001c9e 	jal	7278 <OS_CPU_SR_Save>
    6880:	00000000 	nop
    6884:	afa20010 	sw	v0,16(sp)
    6888:	af807810 	sw	zero,30736(gp)
    688c:	8fa40010 	lw	a0,16(sp)
    6890:	0c001ca5 	jal	7294 <OS_CPU_SR_Restore>
    6894:	00000000 	nop
    6898:	0c001384 	jal	4e10 <OSTimeDly>
    689c:	2404000a 	li	a0,10
    68a0:	0c001c9e 	jal	7278 <OS_CPU_SR_Save>
    68a4:	00000000 	nop
    68a8:	afa20010 	sw	v0,16(sp)
    68ac:	8f837810 	lw	v1,30736(gp)
    68b0:	8fa40010 	lw	a0,16(sp)
    68b4:	24020001 	li	v0,1
    68b8:	8fbf001c 	lw	ra,28(sp)
    68bc:	27bd0020 	addiu	sp,sp,32
    68c0:	af837828 	sw	v1,30760(gp)
    68c4:	08001ca5 	j	7294 <OS_CPU_SR_Restore>
    68c8:	a3827868 	sb	v0,30824(gp)

000068cc <OS_TaskStat>:
    68cc:	93827868 	lbu	v0,30824(gp)
    68d0:	27bdffe0 	addiu	sp,sp,-32
    68d4:	afbf001c 	sw	ra,28(sp)
    68d8:	afb00018 	sw	s0,24(sp)
    68dc:	afa00010 	sw	zero,16(sp)
    68e0:	14400006 	bnez	v0,68fc <OS_TaskStat+0x30>
    68e4:	8f827828 	lw	v0,30760(gp)
    68e8:	0c001384 	jal	4e10 <OSTimeDly>
    68ec:	24040014 	li	a0,20
    68f0:	93827868 	lbu	v0,30824(gp)
    68f4:	1040fffc 	beqz	v0,68e8 <OS_TaskStat+0x1c>
    68f8:	8f827828 	lw	v0,30760(gp)
    68fc:	3c0351eb 	lui	v1,0x51eb
    6900:	3463851f 	ori	v1,v1,0x851f
    6904:	00430019 	multu	v0,v1
    6908:	00001010 	mfhi	v0
    690c:	00021142 	srl	v0,v0,0x5
    6910:	10400018 	beqz	v0,6974 <OS_TaskStat+0xa8>
    6914:	af827828 	sw	v0,30760(gp)
    6918:	24100064 	li	s0,100
    691c:	0c001c9e 	jal	7278 <OS_CPU_SR_Save>
    6920:	00000000 	nop
    6924:	afa20010 	sw	v0,16(sp)
    6928:	8f827810 	lw	v0,30736(gp)
    692c:	af807810 	sw	zero,30736(gp)
    6930:	8fa40010 	lw	a0,16(sp)
    6934:	0c001ca5 	jal	7294 <OS_CPU_SR_Restore>
    6938:	af82786c 	sw	v0,30828(gp)
    693c:	8f82786c 	lw	v0,30828(gp)
    6940:	8f837828 	lw	v1,30760(gp)
    6944:	0043001b 	divu	zero,v0,v1
    6948:	006001f4 	teq	v1,zero,0x7
    694c:	00001012 	mflo	v0
    6950:	02021023 	subu	v0,s0,v0
    6954:	0c001bb2 	jal	6ec8 <OSTaskStatHook>
    6958:	a3827830 	sb	v0,30768(gp)
    695c:	0c0019f1 	jal	67c4 <OS_TaskStatStkChk>
    6960:	00000000 	nop
    6964:	0c001384 	jal	4e10 <OSTimeDly>
    6968:	2404000a 	li	a0,10
    696c:	08001a47 	j	691c <OS_TaskStat+0x50>
    6970:	00000000 	nop
    6974:	240400ff 	li	a0,255
    6978:	0c001043 	jal	410c <OSTaskSuspend>
    697c:	a3807830 	sb	zero,30768(gp)
    6980:	08001a47 	j	691c <OS_TaskStat+0x50>
    6984:	24100064 	li	s0,100

00006988 <OS_TaskIdle>:
    6988:	27bdffe0 	addiu	sp,sp,-32
    698c:	afbf001c 	sw	ra,28(sp)
    6990:	afa00010 	sw	zero,16(sp)
    6994:	0c001c9e 	jal	7278 <OS_CPU_SR_Save>
    6998:	00000000 	nop
    699c:	afa20010 	sw	v0,16(sp)
    69a0:	8f827810 	lw	v0,30736(gp)
    69a4:	24420001 	addiu	v0,v0,1
    69a8:	af827810 	sw	v0,30736(gp)
    69ac:	8fa40010 	lw	a0,16(sp)
    69b0:	0c001ca5 	jal	7294 <OS_CPU_SR_Restore>
    69b4:	00000000 	nop
    69b8:	0c001bb0 	jal	6ec0 <OSTaskIdleHook>
    69bc:	00000000 	nop
    69c0:	08001a65 	j	6994 <OS_TaskIdle+0xc>
    69c4:	00000000 	nop

000069c8 <OSTimeTick>:
    69c8:	27bdffd0 	addiu	sp,sp,-48
    69cc:	afbf002c 	sw	ra,44(sp)
    69d0:	afb40028 	sw	s4,40(sp)
    69d4:	afb30024 	sw	s3,36(sp)
    69d8:	afb20020 	sw	s2,32(sp)
    69dc:	afb1001c 	sw	s1,28(sp)
    69e0:	afb00018 	sw	s0,24(sp)
    69e4:	afa00010 	sw	zero,16(sp)
    69e8:	0c001c18 	jal	7060 <OSTimeTickHook>
    69ec:	00000000 	nop
    69f0:	0c001c9e 	jal	7278 <OS_CPU_SR_Save>
    69f4:	00000000 	nop
    69f8:	afa20010 	sw	v0,16(sp)
    69fc:	8f82785c 	lw	v0,30812(gp)
    6a00:	24420001 	addiu	v0,v0,1
    6a04:	af82785c 	sw	v0,30812(gp)
    6a08:	8fa40010 	lw	a0,16(sp)
    6a0c:	0c001ca5 	jal	7294 <OS_CPU_SR_Restore>
    6a10:	00000000 	nop
    6a14:	9383780c 	lbu	v1,30732(gp)
    6a18:	24020001 	li	v0,1
    6a1c:	10620009 	beq	v1,v0,6a44 <OSTimeTick+0x7c>
    6a20:	9384781c 	lbu	a0,30748(gp)
    6a24:	8fbf002c 	lw	ra,44(sp)
    6a28:	8fb40028 	lw	s4,40(sp)
    6a2c:	8fb30024 	lw	s3,36(sp)
    6a30:	8fb20020 	lw	s2,32(sp)
    6a34:	8fb1001c 	lw	s1,28(sp)
    6a38:	8fb00018 	lw	s0,24(sp)
    6a3c:	03e00008 	jr	ra
    6a40:	27bd0030 	addiu	sp,sp,48
    6a44:	1083fff8 	beq	a0,v1,6a28 <OSTimeTick+0x60>
    6a48:	8fbf002c 	lw	ra,44(sp)
    6a4c:	10800006 	beqz	a0,6a68 <OSTimeTick+0xa0>
    6a50:	8f907818 	lw	s0,30744(gp)
    6a54:	24020002 	li	v0,2
    6a58:	1082002f 	beq	a0,v0,6b18 <OSTimeTick+0x150>
    6a5c:	00000000 	nop
    6a60:	a380781c 	sb	zero,30748(gp)
    6a64:	8f907818 	lw	s0,30744(gp)
    6a68:	2402003f 	li	v0,63
    6a6c:	92030036 	lbu	v1,54(s0)
    6a70:	1062ffec 	beq	v1,v0,6a24 <OSTimeTick+0x5c>
    6a74:	27947844 	addiu	s4,gp,30788
    6a78:	2412ffc8 	li	s2,-56
    6a7c:	24130001 	li	s3,1
    6a80:	08001ab8 	j	6ae0 <OSTimeTick+0x118>
    6a84:	2411003f 	li	s1,63
    6a88:	a2040034 	sb	a0,52(s0)
    6a8c:	a2130035 	sb	s3,53(s0)
    6a90:	308300ff 	andi	v1,a0,0xff
    6a94:	30620008 	andi	v0,v1,0x8
    6a98:	1440000a 	bnez	v0,6ac4 <OSTimeTick+0xfc>
    6a9c:	93827840 	lbu	v0,30784(gp)
    6aa0:	9203003a 	lbu	v1,58(s0)
    6aa4:	00431025 	or	v0,v0,v1
    6aa8:	a3827840 	sb	v0,30784(gp)
    6aac:	92030038 	lbu	v1,56(s0)
    6ab0:	92040039 	lbu	a0,57(s0)
    6ab4:	02831821 	addu	v1,s4,v1
    6ab8:	90620000 	lbu	v0,0(v1)
    6abc:	00441025 	or	v0,v0,a0
    6ac0:	a0620000 	sb	v0,0(v1)
    6ac4:	8e100014 	lw	s0,20(s0)
    6ac8:	8fa40010 	lw	a0,16(sp)
    6acc:	0c001ca5 	jal	7294 <OS_CPU_SR_Restore>
    6ad0:	00000000 	nop
    6ad4:	92020036 	lbu	v0,54(s0)
    6ad8:	1051ffd3 	beq	v0,s1,6a28 <OSTimeTick+0x60>
    6adc:	8fbf002c 	lw	ra,44(sp)
    6ae0:	0c001c9e 	jal	7278 <OS_CPU_SR_Save>
    6ae4:	00000000 	nop
    6ae8:	8e030030 	lw	v1,48(s0)
    6aec:	afa20010 	sw	v0,16(sp)
    6af0:	1060fff4 	beqz	v1,6ac4 <OSTimeTick+0xfc>
    6af4:	2462ffff 	addiu	v0,v1,-1
    6af8:	1440fff2 	bnez	v0,6ac4 <OSTimeTick+0xfc>
    6afc:	ae020030 	sw	v0,48(s0)
    6b00:	92030034 	lbu	v1,52(s0)
    6b04:	30620037 	andi	v0,v1,0x37
    6b08:	1440ffdf 	bnez	v0,6a88 <OSTimeTick+0xc0>
    6b0c:	00722024 	and	a0,v1,s2
    6b10:	08001aa5 	j	6a94 <OSTimeTick+0xcc>
    6b14:	a2000035 	sb	zero,53(s0)
    6b18:	08001a99 	j	6a64 <OSTimeTick+0x9c>
    6b1c:	a383781c 	sb	v1,30748(gp)

00006b20 <OSStart>:
    6b20:	9382780c 	lbu	v0,30732(gp)
    6b24:	10400003 	beqz	v0,6b34 <OSStart+0x14>
    6b28:	00000000 	nop
    6b2c:	03e00008 	jr	ra
    6b30:	00000000 	nop
    6b34:	93837840 	lbu	v1,30784(gp)
    6b38:	3c060000 	lui	a2,0x0
    6b3c:	24c67648 	addiu	a2,a2,30280
    6b40:	00661821 	addu	v1,v1,a2
    6b44:	90650000 	lbu	a1,0(v1)
    6b48:	27827844 	addiu	v0,gp,30788
    6b4c:	00451021 	addu	v0,v0,a1
    6b50:	90430000 	lbu	v1,0(v0)
    6b54:	000528c0 	sll	a1,a1,0x3
    6b58:	00661821 	addu	v1,v1,a2
    6b5c:	90640000 	lbu	a0,0(v1)
    6b60:	3c020001 	lui	v0,0x1
    6b64:	00852021 	addu	a0,a0,a1
    6b68:	308400ff 	andi	a0,a0,0xff
    6b6c:	00041880 	sll	v1,a0,0x2
    6b70:	244297b4 	addiu	v0,v0,-26700
    6b74:	00621821 	addu	v1,v1,v0
    6b78:	8c650000 	lw	a1,0(v1)
    6b7c:	a3847816 	sb	a0,30742(gp)
    6b80:	af857854 	sw	a1,30804(gp)
    6b84:	a3847817 	sb	a0,30743(gp)
    6b88:	08001c31 	j	70c4 <OSStartHighRdy>
    6b8c:	af857838 	sw	a1,30776(gp)

00006b90 <OSIntExit>:
    6b90:	9383780c 	lbu	v1,30732(gp)
    6b94:	27bdffe0 	addiu	sp,sp,-32
    6b98:	24020001 	li	v0,1
    6b9c:	afbf001c 	sw	ra,28(sp)
    6ba0:	afa00010 	sw	zero,16(sp)
    6ba4:	10620003 	beq	v1,v0,6bb4 <OSIntExit+0x24>
    6ba8:	8fbf001c 	lw	ra,28(sp)
    6bac:	03e00008 	jr	ra
    6bb0:	27bd0020 	addiu	sp,sp,32
    6bb4:	0c001c9e 	jal	7278 <OS_CPU_SR_Save>
    6bb8:	00000000 	nop
    6bbc:	93837850 	lbu	v1,30800(gp)
    6bc0:	afa20010 	sw	v0,16(sp)
    6bc4:	1060000a 	beqz	v1,6bf0 <OSIntExit+0x60>
    6bc8:	93827804 	lbu	v0,30724(gp)
    6bcc:	2462ffff 	addiu	v0,v1,-1
    6bd0:	304200ff 	andi	v0,v0,0xff
    6bd4:	10400005 	beqz	v0,6bec <OSIntExit+0x5c>
    6bd8:	a3827850 	sb	v0,30800(gp)
    6bdc:	8fa40010 	lw	a0,16(sp)
    6be0:	8fbf001c 	lw	ra,28(sp)
    6be4:	08001ca5 	j	7294 <OS_CPU_SR_Restore>
    6be8:	27bd0020 	addiu	sp,sp,32
    6bec:	93827804 	lbu	v0,30724(gp)
    6bf0:	1440fffa 	bnez	v0,6bdc <OSIntExit+0x4c>
    6bf4:	93837840 	lbu	v1,30784(gp)
    6bf8:	3c060000 	lui	a2,0x0
    6bfc:	24c67648 	addiu	a2,a2,30280
    6c00:	00661821 	addu	v1,v1,a2
    6c04:	90650000 	lbu	a1,0(v1)
    6c08:	27827844 	addiu	v0,gp,30788
    6c0c:	00451021 	addu	v0,v0,a1
    6c10:	90430000 	lbu	v1,0(v0)
    6c14:	000528c0 	sll	a1,a1,0x3
    6c18:	00661821 	addu	v1,v1,a2
    6c1c:	90640000 	lbu	a0,0(v1)
    6c20:	3c020001 	lui	v0,0x1
    6c24:	00852021 	addu	a0,a0,a1
    6c28:	308400ff 	andi	a0,a0,0xff
    6c2c:	244297b4 	addiu	v0,v0,-26700
    6c30:	00041880 	sll	v1,a0,0x2
    6c34:	00621821 	addu	v1,v1,v0
    6c38:	8c630000 	lw	v1,0(v1)
    6c3c:	93827817 	lbu	v0,30743(gp)
    6c40:	a3847816 	sb	a0,30742(gp)
    6c44:	1044ffe5 	beq	v0,a0,6bdc <OSIntExit+0x4c>
    6c48:	af837838 	sw	v1,30776(gp)
    6c4c:	8c62003c 	lw	v0,60(v1)
    6c50:	24420001 	addiu	v0,v0,1
    6c54:	ac62003c 	sw	v0,60(v1)
    6c58:	8f837820 	lw	v1,30752(gp)
    6c5c:	24630001 	addiu	v1,v1,1
    6c60:	0c001c65 	jal	7194 <OSIntCtxSw>
    6c64:	af837820 	sw	v1,30752(gp)
    6c68:	08001af7 	j	6bdc <OSIntExit+0x4c>
    6c6c:	00000000 	nop

00006c70 <OSInit>:
    6c70:	27bdffc0 	addiu	sp,sp,-64
    6c74:	afbf003c 	sw	ra,60(sp)
    6c78:	afb20038 	sw	s2,56(sp)
    6c7c:	afb10034 	sw	s1,52(sp)
    6c80:	0c001ba6 	jal	6e98 <OSInitHookBegin>
    6c84:	afb00030 	sw	s0,48(sp)
    6c88:	27827844 	addiu	v0,gp,30788
    6c8c:	af80785c 	sw	zero,30812(gp)
    6c90:	a3807850 	sb	zero,30800(gp)
    6c94:	a3807804 	sb	zero,30724(gp)
    6c98:	a3807831 	sb	zero,30769(gp)
    6c9c:	a380780c 	sb	zero,30732(gp)
    6ca0:	af807820 	sw	zero,30752(gp)
    6ca4:	af807810 	sw	zero,30736(gp)
    6ca8:	af80786c 	sw	zero,30828(gp)
    6cac:	af807828 	sw	zero,30760(gp)
    6cb0:	a3807868 	sb	zero,30824(gp)
    6cb4:	a3807840 	sb	zero,30784(gp)
    6cb8:	24430008 	addiu	v1,v0,8
    6cbc:	a0400000 	sb	zero,0(v0)
    6cc0:	24420001 	addiu	v0,v0,1
    6cc4:	1462fffd 	bne	v1,v0,6cbc <OSInit+0x4c>
    6cc8:	00000000 	nop
    6ccc:	3c020001 	lui	v0,0x1
    6cd0:	3c030001 	lui	v1,0x1
    6cd4:	24489024 	addiu	t0,v0,-28636
    6cd8:	246397b4 	addiu	v1,v1,-26700
    6cdc:	a3807817 	sb	zero,30743(gp)
    6ce0:	a3807816 	sb	zero,30742(gp)
    6ce4:	af807838 	sw	zero,30776(gp)
    6ce8:	af807854 	sw	zero,30804(gp)
    6cec:	01001021 	move	v0,t0
    6cf0:	00602021 	move	a0,v1
    6cf4:	a0400000 	sb	zero,0(v0)
    6cf8:	24420001 	addiu	v0,v0,1
    6cfc:	1443fffd 	bne	v0,v1,6cf4 <OSInit+0x84>
    6d00:	00802821 	move	a1,a0
    6d04:	3c020001 	lui	v0,0x1
    6d08:	3c030001 	lui	v1,0x1
    6d0c:	244297b4 	addiu	v0,v0,-26700
    6d10:	246398b4 	addiu	v1,v1,-26444
    6d14:	a0400000 	sb	zero,0(v0)
    6d18:	24420001 	addiu	v0,v0,1
    6d1c:	1443fffd 	bne	v0,v1,6d14 <OSInit+0xa4>
    6d20:	00000000 	nop
    6d24:	3c020001 	lui	v0,0x1
    6d28:	3c030000 	lui	v1,0x0
    6d2c:	2442907c 	addiu	v0,v0,-28548
    6d30:	246677a4 	addiu	a2,v1,30628
    6d34:	ac42ffbc 	sw	v0,-68(v0)
    6d38:	ac46fff8 	sw	a2,-8(v0)
    6d3c:	24420058 	addiu	v0,v0,88
    6d40:	1445fffc 	bne	v0,a1,6d34 <OSInit+0xc4>
    6d44:	3c030001 	lui	v1,0x1
    6d48:	3c020001 	lui	v0,0x1
    6d4c:	24478f34 	addiu	a3,v0,-28876
    6d50:	24639024 	addiu	v1,v1,-28636
    6d54:	af88782c 	sw	t0,30764(gp)
    6d58:	ad00074c 	sw	zero,1868(t0)
    6d5c:	ad060788 	sw	a2,1928(t0)
    6d60:	af807818 	sw	zero,30744(gp)
    6d64:	00e01021 	move	v0,a3
    6d68:	00602021 	move	a0,v1
    6d6c:	a0400000 	sb	zero,0(v0)
    6d70:	24420001 	addiu	v0,v0,1
    6d74:	1443fffd 	bne	v0,v1,6d6c <OSInit+0xfc>
    6d78:	00802821 	move	a1,a0
    6d7c:	3c020001 	lui	v0,0x1
    6d80:	24428f4c 	addiu	v0,v0,-28852
    6d84:	00c01821 	move	v1,a2
    6d88:	a040ffe8 	sb	zero,-24(v0)
    6d8c:	ac42ffec 	sw	v0,-20(v0)
    6d90:	ac46fffc 	sw	a2,-4(v0)
    6d94:	24420018 	addiu	v0,v0,24
    6d98:	1445fffb 	bne	v0,a1,6d88 <OSInit+0x118>
    6d9c:	00000000 	nop
    6da0:	ace300ec 	sw	v1,236(a3)
    6da4:	af87784c 	sw	a3,30796(gp)
    6da8:	ace000dc 	sw	zero,220(a3)
    6dac:	0c000172 	jal	5c8 <OS_FlagInit>
    6db0:	a0e000d8 	sb	zero,216(a3)
    6db4:	0c000684 	jal	1a10 <OS_MemInit>
    6db8:	24110080 	li	s1,128
    6dbc:	0c000a33 	jal	28cc <OS_QInit>
    6dc0:	24120003 	li	s2,3
    6dc4:	3c040000 	lui	a0,0x0
    6dc8:	3c060001 	lui	a2,0x1
    6dcc:	3c020001 	lui	v0,0x1
    6dd0:	3403ffff 	li	v1,0xffff
    6dd4:	2407003f 	li	a3,63
    6dd8:	24846988 	addiu	a0,a0,27016
    6ddc:	24c68f30 	addiu	a2,a2,-28880
    6de0:	00002821 	move	a1,zero
    6de4:	24428d34 	addiu	v0,v0,-29388
    6de8:	afa30010 	sw	v1,16(sp)
    6dec:	27b00028 	addiu	s0,sp,40
    6df0:	afb10018 	sw	s1,24(sp)
    6df4:	afb20020 	sw	s2,32(sp)
    6df8:	afa20014 	sw	v0,20(sp)
